
zig-out/bin/kernel:     file format elf64-littleriscv


Disassembly of section .text:

0000000080000000 <_start>:
    80000000:	00044197          	auipc	gp,0x44
    80000004:	04018193          	addi	gp,gp,64 # 80044040 <compiler_rt.atomics.spinlocks>
    80000008:	f14022f3          	csrr	t0,mhartid
    8000000c:	04029063          	bnez	t0,8000004c <wait>
    80000010:	18001073          	csrw	satp,zero

0000000080000014 <.Lpcrel_hi1>:
    80000014:	00043117          	auipc	sp,0x43
    80000018:	02c10113          	addi	sp,sp,44 # 80043040 <stack_top>

000000008000001c <.Lpcrel_hi2>:
    8000001c:	00040f17          	auipc	t5,0x40
    80000020:	fe4f0f13          	addi	t5,t5,-28 # 80040000 <KernelCtx.instance>

0000000080000024 <.Lpcrel_hi3>:
    80000024:	00044f97          	auipc	t6,0x44
    80000028:	01cf8f93          	addi	t6,t6,28 # 80044040 <compiler_rt.atomics.spinlocks>

000000008000002c <bss_clear>:
    8000002c:	000f3023          	sd	zero,0(t5)
    80000030:	008f0f13          	addi	t5,t5,8
    80000034:	ffff6ce3          	bltu	t5,t6,8000002c <bss_clear>

0000000080000038 <.Lpcrel_hi4>:
    80000038:	00019297          	auipc	t0,0x19
    8000003c:	d9028293          	addi	t0,t0,-624 # 80018dc8 <kmain>
    80000040:	34129073          	csrw	mepc,t0
    80000044:	00019317          	auipc	t1,0x19
    80000048:	d8430067          	jr	-636(t1) # 80018dc8 <kmain>

000000008000004c <wait>:
    8000004c:	0000006f          	j	8000004c <wait>

0000000080000050 <__ubsan_handle_add_overflow>:
    80000050:	de010113          	addi	sp,sp,-544
    80000054:	20113c23          	sd	ra,536(sp)
    80000058:	02113c23          	sd	ra,56(sp)
    8000005c:	04a13023          	sd	a0,64(sp)
    80000060:	04b13423          	sd	a1,72(sp)
    80000064:	04c13823          	sd	a2,80(sp)
    80000068:	02000693          	li	a3,32
    8000006c:	16d13423          	sd	a3,360(sp)
    80000070:	05810693          	addi	a3,sp,88
    80000074:	16d13023          	sd	a3,352(sp)
    80000078:	00000693          	li	a3,0
    8000007c:	14d13c23          	sd	a3,344(sp)
    80000080:	16a13823          	sd	a0,368(sp)
    80000084:	18b13023          	sd	a1,384(sp)
    80000088:	01053583          	ld	a1,16(a0)
    8000008c:	16b13c23          	sd	a1,376(sp)
    80000090:	18c13823          	sd	a2,400(sp)
    80000094:	01053503          	ld	a0,16(a0)
    80000098:	18a13423          	sd	a0,392(sp)
    8000009c:	17013503          	ld	a0,368(sp)
    800000a0:	01053583          	ld	a1,16(a0)
    800000a4:	15810513          	addi	a0,sp,344
    800000a8:	00000097          	auipc	ra,0x0
    800000ac:	100080e7          	jalr	256(ra) # 800001a8 <ubsan_rt.TypeDescriptor.isSigned>
    800000b0:	00157513          	andi	a0,a0,1
    800000b4:	0c051263          	bnez	a0,80000178 <__ubsan_handle_add_overflow+0x128>
    800000b8:	0d80006f          	j	80000190 <.Lpcrel_hi0+0x14>
    800000bc:	03813503          	ld	a0,56(sp)
    800000c0:	01013603          	ld	a2,16(sp)
    800000c4:	00813583          	ld	a1,8(sp)
    800000c8:	00b13c23          	sd	a1,24(sp)
    800000cc:	02c13023          	sd	a2,32(sp)
    800000d0:	18c13c23          	sd	a2,408(sp)
    800000d4:	1ab13023          	sd	a1,416(sp)
    800000d8:	1aa13423          	sd	a0,424(sp)
    800000dc:	00100513          	li	a0,1
    800000e0:	1aa10823          	sb	a0,432(sp)
    800000e4:	18013503          	ld	a0,384(sp)
    800000e8:	1ca13023          	sd	a0,448(sp)
    800000ec:	17813503          	ld	a0,376(sp)
    800000f0:	1aa13c23          	sd	a0,440(sp)
    800000f4:	19013503          	ld	a0,400(sp)
    800000f8:	1ca13823          	sd	a0,464(sp)
    800000fc:	18813503          	ld	a0,392(sp)
    80000100:	1ca13423          	sd	a0,456(sp)
    80000104:	17013503          	ld	a0,368(sp)
    80000108:	01053583          	ld	a1,16(a0)
    8000010c:	15810513          	addi	a0,sp,344
    80000110:	02a13423          	sd	a0,40(sp)
    80000114:	00000097          	auipc	ra,0x0
    80000118:	0d0080e7          	jalr	208(ra) # 800001e4 <ubsan_rt.TypeDescriptor.getName>
    8000011c:	01813703          	ld	a4,24(sp)
    80000120:	02013683          	ld	a3,32(sp)
    80000124:	00050613          	mv	a2,a0
    80000128:	02813503          	ld	a0,40(sp)
    8000012c:	02c13823          	sd	a2,48(sp)
    80000130:	00058613          	mv	a2,a1
    80000134:	03013583          	ld	a1,48(sp)
    80000138:	1ee13023          	sd	a4,480(sp)
    8000013c:	1cd13c23          	sd	a3,472(sp)
    80000140:	1c013683          	ld	a3,448(sp)
    80000144:	1ed13823          	sd	a3,496(sp)
    80000148:	1b813683          	ld	a3,440(sp)
    8000014c:	1ed13423          	sd	a3,488(sp)
    80000150:	1d013683          	ld	a3,464(sp)
    80000154:	20d13023          	sd	a3,512(sp)
    80000158:	1c813683          	ld	a3,456(sp)
    8000015c:	1ed13c23          	sd	a3,504(sp)
    80000160:	20c13823          	sd	a2,528(sp)
    80000164:	20b13423          	sd	a1,520(sp)
    80000168:	1a810593          	addi	a1,sp,424
    8000016c:	1d810613          	addi	a2,sp,472
    80000170:	00000097          	auipc	ra,0x0
    80000174:	098080e7          	jalr	152(ra) # 80000208 <debug.panicExtra__anon_2200>
    80000178:	00600513          	li	a0,6

000000008000017c <.Lpcrel_hi0>:
    8000017c:	0004c597          	auipc	a1,0x4c
    80000180:	1aa58593          	addi	a1,a1,426 # 8004c326 <__anon_2159>
    80000184:	00b13823          	sd	a1,16(sp)
    80000188:	00a13423          	sd	a0,8(sp)
    8000018c:	f31ff06f          	j	800000bc <__ubsan_handle_add_overflow+0x6c>
    80000190:	00800513          	li	a0,8

0000000080000194 <.Lpcrel_hi1>:
    80000194:	0004c597          	auipc	a1,0x4c
    80000198:	1bc58593          	addi	a1,a1,444 # 8004c350 <__anon_2162>
    8000019c:	00b13823          	sd	a1,16(sp)
    800001a0:	00a13423          	sd	a0,8(sp)
    800001a4:	f19ff06f          	j	800000bc <__ubsan_handle_add_overflow+0x6c>

00000000800001a8 <ubsan_rt.TypeDescriptor.isSigned>:
    800001a8:	ff010113          	addi	sp,sp,-16
    800001ac:	00b13423          	sd	a1,8(sp)
    800001b0:	0005d503          	lhu	a0,0(a1)
    800001b4:	00050a63          	beqz	a0,800001c8 <ubsan_rt.TypeDescriptor.isSigned+0x20>
    800001b8:	0200006f          	j	800001d8 <ubsan_rt.TypeDescriptor.isSigned+0x30>
    800001bc:	00013503          	ld	a0,0(sp)
    800001c0:	01010113          	addi	sp,sp,16
    800001c4:	00008067          	ret
    800001c8:	00813503          	ld	a0,8(sp)
    800001cc:	00251503          	lh	a0,2(a0)
    800001d0:	00a13023          	sd	a0,0(sp)
    800001d4:	fe9ff06f          	j	800001bc <ubsan_rt.TypeDescriptor.isSigned+0x14>
    800001d8:	00000513          	li	a0,0
    800001dc:	00a13023          	sd	a0,0(sp)
    800001e0:	fddff06f          	j	800001bc <ubsan_rt.TypeDescriptor.isSigned+0x14>

00000000800001e4 <ubsan_rt.TypeDescriptor.getName>:
    800001e4:	ff010113          	addi	sp,sp,-16
    800001e8:	00113423          	sd	ra,8(sp)
    800001ec:	00b13023          	sd	a1,0(sp)
    800001f0:	00458593          	addi	a1,a1,4
    800001f4:	00005097          	auipc	ra,0x5
    800001f8:	394080e7          	jalr	916(ra) # 80005588 <mem.span__anon_2636>
    800001fc:	00813083          	ld	ra,8(sp)
    80000200:	01010113          	addi	sp,sp,16
    80000204:	00008067          	ret

0000000080000208 <debug.panicExtra__anon_2200>:
    80000208:	81010113          	addi	sp,sp,-2032
    8000020c:	7e113423          	sd	ra,2024(sp)
    80000210:	80010113          	addi	sp,sp,-2048
    80000214:	f1010113          	addi	sp,sp,-240
    80000218:	000016b7          	lui	a3,0x1
    8000021c:	0906869b          	addiw	a3,a3,144 # 1090 <.Lline_table_start0+0xfe2>
    80000220:	00d106b3          	add	a3,sp,a3
    80000224:	02d13823          	sd	a3,48(sp)
    80000228:	02c13c23          	sd	a2,56(sp)
    8000022c:	04b13023          	sd	a1,64(sp)
    80000230:	04a13423          	sd	a0,72(sp)
    80000234:	00053503          	ld	a0,0(a0)
    80000238:	04a13823          	sd	a0,80(sp)

000000008000023c <.Lpcrel_hi2>:
    8000023c:	0004c517          	auipc	a0,0x4c
    80000240:	00250513          	addi	a0,a0,2 # 8004c23e <__anon_2639>
    80000244:	06a13023          	sd	a0,96(sp)
    80000248:	00001537          	lui	a0,0x1
    8000024c:	00f5061b          	addiw	a2,a0,15 # 100f <.Lline_table_start0+0xf61>
    80000250:	06910513          	addi	a0,sp,105
    80000254:	04a13c23          	sd	a0,88(sp)
    80000258:	0aa00593          	li	a1,170
    8000025c:	0003f097          	auipc	ra,0x3f
    80000260:	b24080e7          	jalr	-1244(ra) # 8003ed80 <memset>
    80000264:	00100513          	li	a0,1
    80000268:	06051a63          	bnez	a0,800002dc <.Lpcrel_hi2+0xa0>
    8000026c:	0740006f          	j	800002e0 <.Lpcrel_hi2+0xa4>
    80000270:	04813583          	ld	a1,72(sp)
    80000274:	05813603          	ld	a2,88(sp)
    80000278:	00001537          	lui	a0,0x1
    8000027c:	0985051b          	addiw	a0,a0,152 # 1098 <.Lline_table_start0+0xfea>
    80000280:	00a10533          	add	a0,sp,a0
    80000284:	000016b7          	lui	a3,0x1
    80000288:	00005097          	auipc	ra,0x5
    8000028c:	420080e7          	jalr	1056(ra) # 800056a8 <Io.Writer.fixed>
    80000290:	03013683          	ld	a3,48(sp)
    80000294:	04813503          	ld	a0,72(sp)
    80000298:	03813603          	ld	a2,56(sp)
    8000029c:	0206b583          	ld	a1,32(a3) # 1020 <.Lline_table_start0+0xf72>
    800002a0:	00b6b023          	sd	a1,0(a3)
    800002a4:	0186b583          	ld	a1,24(a3)
    800002a8:	feb6bc23          	sd	a1,-8(a3)
    800002ac:	0106b583          	ld	a1,16(a3)
    800002b0:	feb6b823          	sd	a1,-16(a3)
    800002b4:	0086b583          	ld	a1,8(a3)
    800002b8:	feb6b423          	sd	a1,-24(a3)
    800002bc:	000015b7          	lui	a1,0x1
    800002c0:	0785859b          	addiw	a1,a1,120 # 1078 <.Lline_table_start0+0xfca>
    800002c4:	00b105b3          	add	a1,sp,a1
    800002c8:	00005097          	auipc	ra,0x5
    800002cc:	414080e7          	jalr	1044(ra) # 800056dc <Io.Writer.print__anon_2790>
    800002d0:	03051513          	slli	a0,a0,0x30
    800002d4:	04050a63          	beqz	a0,80000328 <.Lpcrel_hi2+0xec>
    800002d8:	0740006f          	j	8000034c <.Lpcrel_hi2+0x110>
    800002dc:	f95ff06f          	j	80000270 <.Lpcrel_hi2+0x34>
    800002e0:	04813503          	ld	a0,72(sp)
    800002e4:	000015b7          	lui	a1,0x1
    800002e8:	00f5861b          	addiw	a2,a1,15 # 100f <.Lline_table_start0+0xf61>
    800002ec:	00005097          	auipc	ra,0x5
    800002f0:	38c080e7          	jalr	908(ra) # 80005678 <debug.FullPanic((function 'panicHandler')).outOfBounds>
    800002f4:	04013683          	ld	a3,64(sp)
    800002f8:	04813503          	ld	a0,72(sp)
    800002fc:	03013583          	ld	a1,48(sp)
    80000300:	02813603          	ld	a2,40(sp)
    80000304:	02013703          	ld	a4,32(sp)
    80000308:	02c5b423          	sd	a2,40(a1)
    8000030c:	02e5b823          	sd	a4,48(a1)
    80000310:	04e5b023          	sd	a4,64(a1)
    80000314:	02c5bc23          	sd	a2,56(a1)
    80000318:	0405b603          	ld	a2,64(a1)
    8000031c:	0385b583          	ld	a1,56(a1)
    80000320:	00005097          	auipc	ra,0x5
    80000324:	730080e7          	jalr	1840(ra) # 80005a50 <main.panicHandler>
    80000328:	04813503          	ld	a0,72(sp)
    8000032c:	000015b7          	lui	a1,0x1
    80000330:	0785859b          	addiw	a1,a1,120 # 1078 <.Lline_table_start0+0xfca>
    80000334:	00b105b3          	add	a1,sp,a1
    80000338:	00005097          	auipc	ra,0x5
    8000033c:	634080e7          	jalr	1588(ra) # 8000596c <Io.Writer.buffered>
    80000340:	02a13423          	sd	a0,40(sp)
    80000344:	02b13023          	sd	a1,32(sp)
    80000348:	fadff06f          	j	800002f4 <.Lpcrel_hi2+0xb8>
    8000034c:	000015b7          	lui	a1,0x1
    80000350:	06910513          	addi	a0,sp,105
    80000354:	00b50533          	add	a0,a0,a1
    80000358:	00a13c23          	sd	a0,24(sp)
    8000035c:	00100513          	li	a0,1
    80000360:	02051e63          	bnez	a0,8000039c <.Lpcrel_hi4+0x10>
    80000364:	03c0006f          	j	800003a0 <.Lpcrel_hi4+0x14>
    80000368:	01813503          	ld	a0,24(sp)
    8000036c:	00f50593          	addi	a1,a0,15
    80000370:	00b13823          	sd	a1,16(sp)

0000000080000374 <.Lpcrel_hi3>:
    80000374:	0004c597          	auipc	a1,0x4c
    80000378:	eca58593          	addi	a1,a1,-310 # 8004c23e <__anon_2639>
    8000037c:	00f58593          	addi	a1,a1,15
    80000380:	06b57a63          	bgeu	a0,a1,800003f4 <.Lpcrel_hi5+0x38>
    80000384:	0040006f          	j	80000388 <.Lpcrel_hi3+0x14>
    80000388:	01013583          	ld	a1,16(sp)

000000008000038c <.Lpcrel_hi4>:
    8000038c:	0004c517          	auipc	a0,0x4c
    80000390:	eb250513          	addi	a0,a0,-334 # 8004c23e <__anon_2639>
    80000394:	06b57063          	bgeu	a0,a1,800003f4 <.Lpcrel_hi5+0x38>
    80000398:	0600006f          	j	800003f8 <.Lpcrel_hi5+0x3c>
    8000039c:	fcdff06f          	j	80000368 <.Lpcrel_hi2+0x12c>
    800003a0:	04813503          	ld	a0,72(sp)
    800003a4:	000015b7          	lui	a1,0x1
    800003a8:	00f5861b          	addiw	a2,a1,15 # 100f <.Lline_table_start0+0xf61>
    800003ac:	00060593          	mv	a1,a2
    800003b0:	00005097          	auipc	ra,0x5
    800003b4:	2c8080e7          	jalr	712(ra) # 80005678 <debug.FullPanic((function 'panicHandler')).outOfBounds>
    800003b8:	01813503          	ld	a0,24(sp)

00000000800003bc <.Lpcrel_hi5>:
    800003bc:	0004c597          	auipc	a1,0x4c
    800003c0:	e8258593          	addi	a1,a1,-382 # 8004c23e <__anon_2639>
    800003c4:	00f00613          	li	a2,15
    800003c8:	0003e097          	auipc	ra,0x3e
    800003cc:	7c0080e7          	jalr	1984(ra) # 8003eb88 <memcpy>
    800003d0:	04813583          	ld	a1,72(sp)
    800003d4:	05013503          	ld	a0,80(sp)
    800003d8:	00a5b023          	sd	a0,0(a1)
    800003dc:	06910593          	addi	a1,sp,105
    800003e0:	00001537          	lui	a0,0x1
    800003e4:	00f5051b          	addiw	a0,a0,15 # 100f <.Lline_table_start0+0xf61>
    800003e8:	02b13423          	sd	a1,40(sp)
    800003ec:	02a13023          	sd	a0,32(sp)
    800003f0:	f05ff06f          	j	800002f4 <.Lpcrel_hi2+0xb8>
    800003f4:	fc5ff06f          	j	800003b8 <.Lpcrel_hi4+0x2c>
    800003f8:	04813503          	ld	a0,72(sp)
    800003fc:	00005097          	auipc	ra,0x5
    80000400:	62c080e7          	jalr	1580(ra) # 80005a28 <debug.FullPanic((function 'panicHandler')).memcpyAlias>

0000000080000404 <__ubsan_handle_add_overflow_abort>:
    80000404:	fe010113          	addi	sp,sp,-32
    80000408:	00a13423          	sd	a0,8(sp)
    8000040c:	00b13823          	sd	a1,16(sp)
    80000410:	00c13c23          	sd	a2,24(sp)
    80000414:	00000097          	auipc	ra,0x0
    80000418:	c3c080e7          	jalr	-964(ra) # 80000050 <__ubsan_handle_add_overflow>

000000008000041c <__ubsan_handle_mul_overflow>:
    8000041c:	de010113          	addi	sp,sp,-544
    80000420:	20113c23          	sd	ra,536(sp)
    80000424:	02113c23          	sd	ra,56(sp)
    80000428:	04a13023          	sd	a0,64(sp)
    8000042c:	04b13423          	sd	a1,72(sp)
    80000430:	04c13823          	sd	a2,80(sp)
    80000434:	02000693          	li	a3,32
    80000438:	16d13423          	sd	a3,360(sp)
    8000043c:	05810693          	addi	a3,sp,88
    80000440:	16d13023          	sd	a3,352(sp)
    80000444:	00000693          	li	a3,0
    80000448:	14d13c23          	sd	a3,344(sp)
    8000044c:	16a13823          	sd	a0,368(sp)
    80000450:	18b13023          	sd	a1,384(sp)
    80000454:	01053583          	ld	a1,16(a0)
    80000458:	16b13c23          	sd	a1,376(sp)
    8000045c:	18c13823          	sd	a2,400(sp)
    80000460:	01053503          	ld	a0,16(a0)
    80000464:	18a13423          	sd	a0,392(sp)
    80000468:	17013503          	ld	a0,368(sp)
    8000046c:	01053583          	ld	a1,16(a0)
    80000470:	15810513          	addi	a0,sp,344
    80000474:	00000097          	auipc	ra,0x0
    80000478:	d34080e7          	jalr	-716(ra) # 800001a8 <ubsan_rt.TypeDescriptor.isSigned>
    8000047c:	00157513          	andi	a0,a0,1
    80000480:	0c051263          	bnez	a0,80000544 <__ubsan_handle_mul_overflow+0x128>
    80000484:	0d80006f          	j	8000055c <.Lpcrel_hi6+0x14>
    80000488:	03813503          	ld	a0,56(sp)
    8000048c:	01013603          	ld	a2,16(sp)
    80000490:	00813583          	ld	a1,8(sp)
    80000494:	00b13c23          	sd	a1,24(sp)
    80000498:	02c13023          	sd	a2,32(sp)
    8000049c:	18c13c23          	sd	a2,408(sp)
    800004a0:	1ab13023          	sd	a1,416(sp)
    800004a4:	1aa13423          	sd	a0,424(sp)
    800004a8:	00100513          	li	a0,1
    800004ac:	1aa10823          	sb	a0,432(sp)
    800004b0:	18013503          	ld	a0,384(sp)
    800004b4:	1ca13023          	sd	a0,448(sp)
    800004b8:	17813503          	ld	a0,376(sp)
    800004bc:	1aa13c23          	sd	a0,440(sp)
    800004c0:	19013503          	ld	a0,400(sp)
    800004c4:	1ca13823          	sd	a0,464(sp)
    800004c8:	18813503          	ld	a0,392(sp)
    800004cc:	1ca13423          	sd	a0,456(sp)
    800004d0:	17013503          	ld	a0,368(sp)
    800004d4:	01053583          	ld	a1,16(a0)
    800004d8:	15810513          	addi	a0,sp,344
    800004dc:	02a13423          	sd	a0,40(sp)
    800004e0:	00000097          	auipc	ra,0x0
    800004e4:	d04080e7          	jalr	-764(ra) # 800001e4 <ubsan_rt.TypeDescriptor.getName>
    800004e8:	01813703          	ld	a4,24(sp)
    800004ec:	02013683          	ld	a3,32(sp)
    800004f0:	00050613          	mv	a2,a0
    800004f4:	02813503          	ld	a0,40(sp)
    800004f8:	02c13823          	sd	a2,48(sp)
    800004fc:	00058613          	mv	a2,a1
    80000500:	03013583          	ld	a1,48(sp)
    80000504:	1ee13023          	sd	a4,480(sp)
    80000508:	1cd13c23          	sd	a3,472(sp)
    8000050c:	1c013683          	ld	a3,448(sp)
    80000510:	1ed13823          	sd	a3,496(sp)
    80000514:	1b813683          	ld	a3,440(sp)
    80000518:	1ed13423          	sd	a3,488(sp)
    8000051c:	1d013683          	ld	a3,464(sp)
    80000520:	20d13023          	sd	a3,512(sp)
    80000524:	1c813683          	ld	a3,456(sp)
    80000528:	1ed13c23          	sd	a3,504(sp)
    8000052c:	20c13823          	sd	a2,528(sp)
    80000530:	20b13423          	sd	a1,520(sp)
    80000534:	1a810593          	addi	a1,sp,424
    80000538:	1d810613          	addi	a2,sp,472
    8000053c:	00000097          	auipc	ra,0x0
    80000540:	038080e7          	jalr	56(ra) # 80000574 <debug.panicExtra__anon_2213>
    80000544:	00600513          	li	a0,6

0000000080000548 <.Lpcrel_hi6>:
    80000548:	0004c597          	auipc	a1,0x4c
    8000054c:	dde58593          	addi	a1,a1,-546 # 8004c326 <__anon_2159>
    80000550:	00b13823          	sd	a1,16(sp)
    80000554:	00a13423          	sd	a0,8(sp)
    80000558:	f31ff06f          	j	80000488 <__ubsan_handle_mul_overflow+0x6c>
    8000055c:	00800513          	li	a0,8

0000000080000560 <.Lpcrel_hi7>:
    80000560:	0004c597          	auipc	a1,0x4c
    80000564:	df058593          	addi	a1,a1,-528 # 8004c350 <__anon_2162>
    80000568:	00b13823          	sd	a1,16(sp)
    8000056c:	00a13423          	sd	a0,8(sp)
    80000570:	f19ff06f          	j	80000488 <__ubsan_handle_mul_overflow+0x6c>

0000000080000574 <debug.panicExtra__anon_2213>:
    80000574:	81010113          	addi	sp,sp,-2032
    80000578:	7e113423          	sd	ra,2024(sp)
    8000057c:	80010113          	addi	sp,sp,-2048
    80000580:	f1010113          	addi	sp,sp,-240
    80000584:	000016b7          	lui	a3,0x1
    80000588:	0906869b          	addiw	a3,a3,144 # 1090 <.Lline_table_start0+0xfe2>
    8000058c:	00d106b3          	add	a3,sp,a3
    80000590:	02d13823          	sd	a3,48(sp)
    80000594:	02c13c23          	sd	a2,56(sp)
    80000598:	04b13023          	sd	a1,64(sp)
    8000059c:	04a13423          	sd	a0,72(sp)
    800005a0:	00053503          	ld	a0,0(a0)
    800005a4:	04a13823          	sd	a0,80(sp)

00000000800005a8 <.Lpcrel_hi8>:
    800005a8:	0004c517          	auipc	a0,0x4c
    800005ac:	c9650513          	addi	a0,a0,-874 # 8004c23e <__anon_2639>
    800005b0:	06a13023          	sd	a0,96(sp)
    800005b4:	00001537          	lui	a0,0x1
    800005b8:	00f5061b          	addiw	a2,a0,15 # 100f <.Lline_table_start0+0xf61>
    800005bc:	06910513          	addi	a0,sp,105
    800005c0:	04a13c23          	sd	a0,88(sp)
    800005c4:	0aa00593          	li	a1,170
    800005c8:	0003e097          	auipc	ra,0x3e
    800005cc:	7b8080e7          	jalr	1976(ra) # 8003ed80 <memset>
    800005d0:	00100513          	li	a0,1
    800005d4:	06051a63          	bnez	a0,80000648 <.Lpcrel_hi8+0xa0>
    800005d8:	0740006f          	j	8000064c <.Lpcrel_hi8+0xa4>
    800005dc:	04813583          	ld	a1,72(sp)
    800005e0:	05813603          	ld	a2,88(sp)
    800005e4:	00001537          	lui	a0,0x1
    800005e8:	0985051b          	addiw	a0,a0,152 # 1098 <.Lline_table_start0+0xfea>
    800005ec:	00a10533          	add	a0,sp,a0
    800005f0:	000016b7          	lui	a3,0x1
    800005f4:	00005097          	auipc	ra,0x5
    800005f8:	0b4080e7          	jalr	180(ra) # 800056a8 <Io.Writer.fixed>
    800005fc:	03013683          	ld	a3,48(sp)
    80000600:	04813503          	ld	a0,72(sp)
    80000604:	03813603          	ld	a2,56(sp)
    80000608:	0206b583          	ld	a1,32(a3) # 1020 <.Lline_table_start0+0xf72>
    8000060c:	00b6b023          	sd	a1,0(a3)
    80000610:	0186b583          	ld	a1,24(a3)
    80000614:	feb6bc23          	sd	a1,-8(a3)
    80000618:	0106b583          	ld	a1,16(a3)
    8000061c:	feb6b823          	sd	a1,-16(a3)
    80000620:	0086b583          	ld	a1,8(a3)
    80000624:	feb6b423          	sd	a1,-24(a3)
    80000628:	000015b7          	lui	a1,0x1
    8000062c:	0785859b          	addiw	a1,a1,120 # 1078 <.Lline_table_start0+0xfca>
    80000630:	00b105b3          	add	a1,sp,a1
    80000634:	00005097          	auipc	ra,0x5
    80000638:	4b0080e7          	jalr	1200(ra) # 80005ae4 <Io.Writer.print__anon_2804>
    8000063c:	03051513          	slli	a0,a0,0x30
    80000640:	04050a63          	beqz	a0,80000694 <.Lpcrel_hi8+0xec>
    80000644:	0740006f          	j	800006b8 <.Lpcrel_hi8+0x110>
    80000648:	f95ff06f          	j	800005dc <.Lpcrel_hi8+0x34>
    8000064c:	04813503          	ld	a0,72(sp)
    80000650:	000015b7          	lui	a1,0x1
    80000654:	00f5861b          	addiw	a2,a1,15 # 100f <.Lline_table_start0+0xf61>
    80000658:	00005097          	auipc	ra,0x5
    8000065c:	020080e7          	jalr	32(ra) # 80005678 <debug.FullPanic((function 'panicHandler')).outOfBounds>
    80000660:	04013683          	ld	a3,64(sp)
    80000664:	04813503          	ld	a0,72(sp)
    80000668:	03013583          	ld	a1,48(sp)
    8000066c:	02813603          	ld	a2,40(sp)
    80000670:	02013703          	ld	a4,32(sp)
    80000674:	02c5b423          	sd	a2,40(a1)
    80000678:	02e5b823          	sd	a4,48(a1)
    8000067c:	04e5b023          	sd	a4,64(a1)
    80000680:	02c5bc23          	sd	a2,56(a1)
    80000684:	0405b603          	ld	a2,64(a1)
    80000688:	0385b583          	ld	a1,56(a1)
    8000068c:	00005097          	auipc	ra,0x5
    80000690:	3c4080e7          	jalr	964(ra) # 80005a50 <main.panicHandler>
    80000694:	04813503          	ld	a0,72(sp)
    80000698:	000015b7          	lui	a1,0x1
    8000069c:	0785859b          	addiw	a1,a1,120 # 1078 <.Lline_table_start0+0xfca>
    800006a0:	00b105b3          	add	a1,sp,a1
    800006a4:	00005097          	auipc	ra,0x5
    800006a8:	2c8080e7          	jalr	712(ra) # 8000596c <Io.Writer.buffered>
    800006ac:	02a13423          	sd	a0,40(sp)
    800006b0:	02b13023          	sd	a1,32(sp)
    800006b4:	fadff06f          	j	80000660 <.Lpcrel_hi8+0xb8>
    800006b8:	000015b7          	lui	a1,0x1
    800006bc:	06910513          	addi	a0,sp,105
    800006c0:	00b50533          	add	a0,a0,a1
    800006c4:	00a13c23          	sd	a0,24(sp)
    800006c8:	00100513          	li	a0,1
    800006cc:	02051e63          	bnez	a0,80000708 <.Lpcrel_hi10+0x10>
    800006d0:	03c0006f          	j	8000070c <.Lpcrel_hi10+0x14>
    800006d4:	01813503          	ld	a0,24(sp)
    800006d8:	00f50593          	addi	a1,a0,15
    800006dc:	00b13823          	sd	a1,16(sp)

00000000800006e0 <.Lpcrel_hi9>:
    800006e0:	0004c597          	auipc	a1,0x4c
    800006e4:	b5e58593          	addi	a1,a1,-1186 # 8004c23e <__anon_2639>
    800006e8:	00f58593          	addi	a1,a1,15
    800006ec:	06b57a63          	bgeu	a0,a1,80000760 <.Lpcrel_hi11+0x38>
    800006f0:	0040006f          	j	800006f4 <.Lpcrel_hi9+0x14>
    800006f4:	01013583          	ld	a1,16(sp)

00000000800006f8 <.Lpcrel_hi10>:
    800006f8:	0004c517          	auipc	a0,0x4c
    800006fc:	b4650513          	addi	a0,a0,-1210 # 8004c23e <__anon_2639>
    80000700:	06b57063          	bgeu	a0,a1,80000760 <.Lpcrel_hi11+0x38>
    80000704:	0600006f          	j	80000764 <.Lpcrel_hi11+0x3c>
    80000708:	fcdff06f          	j	800006d4 <.Lpcrel_hi8+0x12c>
    8000070c:	04813503          	ld	a0,72(sp)
    80000710:	000015b7          	lui	a1,0x1
    80000714:	00f5861b          	addiw	a2,a1,15 # 100f <.Lline_table_start0+0xf61>
    80000718:	00060593          	mv	a1,a2
    8000071c:	00005097          	auipc	ra,0x5
    80000720:	f5c080e7          	jalr	-164(ra) # 80005678 <debug.FullPanic((function 'panicHandler')).outOfBounds>
    80000724:	01813503          	ld	a0,24(sp)

0000000080000728 <.Lpcrel_hi11>:
    80000728:	0004c597          	auipc	a1,0x4c
    8000072c:	b1658593          	addi	a1,a1,-1258 # 8004c23e <__anon_2639>
    80000730:	00f00613          	li	a2,15
    80000734:	0003e097          	auipc	ra,0x3e
    80000738:	454080e7          	jalr	1108(ra) # 8003eb88 <memcpy>
    8000073c:	04813583          	ld	a1,72(sp)
    80000740:	05013503          	ld	a0,80(sp)
    80000744:	00a5b023          	sd	a0,0(a1)
    80000748:	06910593          	addi	a1,sp,105
    8000074c:	00001537          	lui	a0,0x1
    80000750:	00f5051b          	addiw	a0,a0,15 # 100f <.Lline_table_start0+0xf61>
    80000754:	02b13423          	sd	a1,40(sp)
    80000758:	02a13023          	sd	a0,32(sp)
    8000075c:	f05ff06f          	j	80000660 <.Lpcrel_hi8+0xb8>
    80000760:	fc5ff06f          	j	80000724 <.Lpcrel_hi10+0x2c>
    80000764:	04813503          	ld	a0,72(sp)
    80000768:	00005097          	auipc	ra,0x5
    8000076c:	2c0080e7          	jalr	704(ra) # 80005a28 <debug.FullPanic((function 'panicHandler')).memcpyAlias>

0000000080000770 <__ubsan_handle_mul_overflow_abort>:
    80000770:	fe010113          	addi	sp,sp,-32
    80000774:	00a13423          	sd	a0,8(sp)
    80000778:	00b13823          	sd	a1,16(sp)
    8000077c:	00c13c23          	sd	a2,24(sp)
    80000780:	00000097          	auipc	ra,0x0
    80000784:	c9c080e7          	jalr	-868(ra) # 8000041c <__ubsan_handle_mul_overflow>

0000000080000788 <__ubsan_handle_sub_overflow>:
    80000788:	de010113          	addi	sp,sp,-544
    8000078c:	20113c23          	sd	ra,536(sp)
    80000790:	02113c23          	sd	ra,56(sp)
    80000794:	04a13023          	sd	a0,64(sp)
    80000798:	04b13423          	sd	a1,72(sp)
    8000079c:	04c13823          	sd	a2,80(sp)
    800007a0:	02000693          	li	a3,32
    800007a4:	16d13423          	sd	a3,360(sp)
    800007a8:	05810693          	addi	a3,sp,88
    800007ac:	16d13023          	sd	a3,352(sp)
    800007b0:	00000693          	li	a3,0
    800007b4:	14d13c23          	sd	a3,344(sp)
    800007b8:	16a13823          	sd	a0,368(sp)
    800007bc:	18b13023          	sd	a1,384(sp)
    800007c0:	01053583          	ld	a1,16(a0)
    800007c4:	16b13c23          	sd	a1,376(sp)
    800007c8:	18c13823          	sd	a2,400(sp)
    800007cc:	01053503          	ld	a0,16(a0)
    800007d0:	18a13423          	sd	a0,392(sp)
    800007d4:	17013503          	ld	a0,368(sp)
    800007d8:	01053583          	ld	a1,16(a0)
    800007dc:	15810513          	addi	a0,sp,344
    800007e0:	00000097          	auipc	ra,0x0
    800007e4:	9c8080e7          	jalr	-1592(ra) # 800001a8 <ubsan_rt.TypeDescriptor.isSigned>
    800007e8:	00157513          	andi	a0,a0,1
    800007ec:	0c051263          	bnez	a0,800008b0 <__ubsan_handle_sub_overflow+0x128>
    800007f0:	0d80006f          	j	800008c8 <.Lpcrel_hi12+0x14>
    800007f4:	03813503          	ld	a0,56(sp)
    800007f8:	01013603          	ld	a2,16(sp)
    800007fc:	00813583          	ld	a1,8(sp)
    80000800:	00b13c23          	sd	a1,24(sp)
    80000804:	02c13023          	sd	a2,32(sp)
    80000808:	18c13c23          	sd	a2,408(sp)
    8000080c:	1ab13023          	sd	a1,416(sp)
    80000810:	1aa13423          	sd	a0,424(sp)
    80000814:	00100513          	li	a0,1
    80000818:	1aa10823          	sb	a0,432(sp)
    8000081c:	18013503          	ld	a0,384(sp)
    80000820:	1ca13023          	sd	a0,448(sp)
    80000824:	17813503          	ld	a0,376(sp)
    80000828:	1aa13c23          	sd	a0,440(sp)
    8000082c:	19013503          	ld	a0,400(sp)
    80000830:	1ca13823          	sd	a0,464(sp)
    80000834:	18813503          	ld	a0,392(sp)
    80000838:	1ca13423          	sd	a0,456(sp)
    8000083c:	17013503          	ld	a0,368(sp)
    80000840:	01053583          	ld	a1,16(a0)
    80000844:	15810513          	addi	a0,sp,344
    80000848:	02a13423          	sd	a0,40(sp)
    8000084c:	00000097          	auipc	ra,0x0
    80000850:	998080e7          	jalr	-1640(ra) # 800001e4 <ubsan_rt.TypeDescriptor.getName>
    80000854:	01813703          	ld	a4,24(sp)
    80000858:	02013683          	ld	a3,32(sp)
    8000085c:	00050613          	mv	a2,a0
    80000860:	02813503          	ld	a0,40(sp)
    80000864:	02c13823          	sd	a2,48(sp)
    80000868:	00058613          	mv	a2,a1
    8000086c:	03013583          	ld	a1,48(sp)
    80000870:	1ee13023          	sd	a4,480(sp)
    80000874:	1cd13c23          	sd	a3,472(sp)
    80000878:	1c013683          	ld	a3,448(sp)
    8000087c:	1ed13823          	sd	a3,496(sp)
    80000880:	1b813683          	ld	a3,440(sp)
    80000884:	1ed13423          	sd	a3,488(sp)
    80000888:	1d013683          	ld	a3,464(sp)
    8000088c:	20d13023          	sd	a3,512(sp)
    80000890:	1c813683          	ld	a3,456(sp)
    80000894:	1ed13c23          	sd	a3,504(sp)
    80000898:	20c13823          	sd	a2,528(sp)
    8000089c:	20b13423          	sd	a1,520(sp)
    800008a0:	1a810593          	addi	a1,sp,424
    800008a4:	1d810613          	addi	a2,sp,472
    800008a8:	00000097          	auipc	ra,0x0
    800008ac:	038080e7          	jalr	56(ra) # 800008e0 <debug.panicExtra__anon_2222>
    800008b0:	00600513          	li	a0,6

00000000800008b4 <.Lpcrel_hi12>:
    800008b4:	0004c597          	auipc	a1,0x4c
    800008b8:	a7258593          	addi	a1,a1,-1422 # 8004c326 <__anon_2159>
    800008bc:	00b13823          	sd	a1,16(sp)
    800008c0:	00a13423          	sd	a0,8(sp)
    800008c4:	f31ff06f          	j	800007f4 <__ubsan_handle_sub_overflow+0x6c>
    800008c8:	00800513          	li	a0,8

00000000800008cc <.Lpcrel_hi13>:
    800008cc:	0004c597          	auipc	a1,0x4c
    800008d0:	a8458593          	addi	a1,a1,-1404 # 8004c350 <__anon_2162>
    800008d4:	00b13823          	sd	a1,16(sp)
    800008d8:	00a13423          	sd	a0,8(sp)
    800008dc:	f19ff06f          	j	800007f4 <__ubsan_handle_sub_overflow+0x6c>

00000000800008e0 <debug.panicExtra__anon_2222>:
    800008e0:	81010113          	addi	sp,sp,-2032
    800008e4:	7e113423          	sd	ra,2024(sp)
    800008e8:	80010113          	addi	sp,sp,-2048
    800008ec:	f1010113          	addi	sp,sp,-240
    800008f0:	000016b7          	lui	a3,0x1
    800008f4:	0906869b          	addiw	a3,a3,144 # 1090 <.Lline_table_start0+0xfe2>
    800008f8:	00d106b3          	add	a3,sp,a3
    800008fc:	02d13823          	sd	a3,48(sp)
    80000900:	02c13c23          	sd	a2,56(sp)
    80000904:	04b13023          	sd	a1,64(sp)
    80000908:	04a13423          	sd	a0,72(sp)
    8000090c:	00053503          	ld	a0,0(a0)
    80000910:	04a13823          	sd	a0,80(sp)

0000000080000914 <.Lpcrel_hi14>:
    80000914:	0004c517          	auipc	a0,0x4c
    80000918:	92a50513          	addi	a0,a0,-1750 # 8004c23e <__anon_2639>
    8000091c:	06a13023          	sd	a0,96(sp)
    80000920:	00001537          	lui	a0,0x1
    80000924:	00f5061b          	addiw	a2,a0,15 # 100f <.Lline_table_start0+0xf61>
    80000928:	06910513          	addi	a0,sp,105
    8000092c:	04a13c23          	sd	a0,88(sp)
    80000930:	0aa00593          	li	a1,170
    80000934:	0003e097          	auipc	ra,0x3e
    80000938:	44c080e7          	jalr	1100(ra) # 8003ed80 <memset>
    8000093c:	00100513          	li	a0,1
    80000940:	06051a63          	bnez	a0,800009b4 <.Lpcrel_hi14+0xa0>
    80000944:	0740006f          	j	800009b8 <.Lpcrel_hi14+0xa4>
    80000948:	04813583          	ld	a1,72(sp)
    8000094c:	05813603          	ld	a2,88(sp)
    80000950:	00001537          	lui	a0,0x1
    80000954:	0985051b          	addiw	a0,a0,152 # 1098 <.Lline_table_start0+0xfea>
    80000958:	00a10533          	add	a0,sp,a0
    8000095c:	000016b7          	lui	a3,0x1
    80000960:	00005097          	auipc	ra,0x5
    80000964:	d48080e7          	jalr	-696(ra) # 800056a8 <Io.Writer.fixed>
    80000968:	03013683          	ld	a3,48(sp)
    8000096c:	04813503          	ld	a0,72(sp)
    80000970:	03813603          	ld	a2,56(sp)
    80000974:	0206b583          	ld	a1,32(a3) # 1020 <.Lline_table_start0+0xf72>
    80000978:	00b6b023          	sd	a1,0(a3)
    8000097c:	0186b583          	ld	a1,24(a3)
    80000980:	feb6bc23          	sd	a1,-8(a3)
    80000984:	0106b583          	ld	a1,16(a3)
    80000988:	feb6b823          	sd	a1,-16(a3)
    8000098c:	0086b583          	ld	a1,8(a3)
    80000990:	feb6b423          	sd	a1,-24(a3)
    80000994:	000015b7          	lui	a1,0x1
    80000998:	0785859b          	addiw	a1,a1,120 # 1078 <.Lline_table_start0+0xfca>
    8000099c:	00b105b3          	add	a1,sp,a1
    800009a0:	00005097          	auipc	ra,0x5
    800009a4:	3d4080e7          	jalr	980(ra) # 80005d74 <Io.Writer.print__anon_2805>
    800009a8:	03051513          	slli	a0,a0,0x30
    800009ac:	04050a63          	beqz	a0,80000a00 <.Lpcrel_hi14+0xec>
    800009b0:	0740006f          	j	80000a24 <.Lpcrel_hi14+0x110>
    800009b4:	f95ff06f          	j	80000948 <.Lpcrel_hi14+0x34>
    800009b8:	04813503          	ld	a0,72(sp)
    800009bc:	000015b7          	lui	a1,0x1
    800009c0:	00f5861b          	addiw	a2,a1,15 # 100f <.Lline_table_start0+0xf61>
    800009c4:	00005097          	auipc	ra,0x5
    800009c8:	cb4080e7          	jalr	-844(ra) # 80005678 <debug.FullPanic((function 'panicHandler')).outOfBounds>
    800009cc:	04013683          	ld	a3,64(sp)
    800009d0:	04813503          	ld	a0,72(sp)
    800009d4:	03013583          	ld	a1,48(sp)
    800009d8:	02813603          	ld	a2,40(sp)
    800009dc:	02013703          	ld	a4,32(sp)
    800009e0:	02c5b423          	sd	a2,40(a1)
    800009e4:	02e5b823          	sd	a4,48(a1)
    800009e8:	04e5b023          	sd	a4,64(a1)
    800009ec:	02c5bc23          	sd	a2,56(a1)
    800009f0:	0405b603          	ld	a2,64(a1)
    800009f4:	0385b583          	ld	a1,56(a1)
    800009f8:	00005097          	auipc	ra,0x5
    800009fc:	058080e7          	jalr	88(ra) # 80005a50 <main.panicHandler>
    80000a00:	04813503          	ld	a0,72(sp)
    80000a04:	000015b7          	lui	a1,0x1
    80000a08:	0785859b          	addiw	a1,a1,120 # 1078 <.Lline_table_start0+0xfca>
    80000a0c:	00b105b3          	add	a1,sp,a1
    80000a10:	00005097          	auipc	ra,0x5
    80000a14:	f5c080e7          	jalr	-164(ra) # 8000596c <Io.Writer.buffered>
    80000a18:	02a13423          	sd	a0,40(sp)
    80000a1c:	02b13023          	sd	a1,32(sp)
    80000a20:	fadff06f          	j	800009cc <.Lpcrel_hi14+0xb8>
    80000a24:	000015b7          	lui	a1,0x1
    80000a28:	06910513          	addi	a0,sp,105
    80000a2c:	00b50533          	add	a0,a0,a1
    80000a30:	00a13c23          	sd	a0,24(sp)
    80000a34:	00100513          	li	a0,1
    80000a38:	02051e63          	bnez	a0,80000a74 <.Lpcrel_hi16+0x10>
    80000a3c:	03c0006f          	j	80000a78 <.Lpcrel_hi16+0x14>
    80000a40:	01813503          	ld	a0,24(sp)
    80000a44:	00f50593          	addi	a1,a0,15
    80000a48:	00b13823          	sd	a1,16(sp)

0000000080000a4c <.Lpcrel_hi15>:
    80000a4c:	0004b597          	auipc	a1,0x4b
    80000a50:	7f258593          	addi	a1,a1,2034 # 8004c23e <__anon_2639>
    80000a54:	00f58593          	addi	a1,a1,15
    80000a58:	06b57a63          	bgeu	a0,a1,80000acc <.Lpcrel_hi17+0x38>
    80000a5c:	0040006f          	j	80000a60 <.Lpcrel_hi15+0x14>
    80000a60:	01013583          	ld	a1,16(sp)

0000000080000a64 <.Lpcrel_hi16>:
    80000a64:	0004b517          	auipc	a0,0x4b
    80000a68:	7da50513          	addi	a0,a0,2010 # 8004c23e <__anon_2639>
    80000a6c:	06b57063          	bgeu	a0,a1,80000acc <.Lpcrel_hi17+0x38>
    80000a70:	0600006f          	j	80000ad0 <.Lpcrel_hi17+0x3c>
    80000a74:	fcdff06f          	j	80000a40 <.Lpcrel_hi14+0x12c>
    80000a78:	04813503          	ld	a0,72(sp)
    80000a7c:	000015b7          	lui	a1,0x1
    80000a80:	00f5861b          	addiw	a2,a1,15 # 100f <.Lline_table_start0+0xf61>
    80000a84:	00060593          	mv	a1,a2
    80000a88:	00005097          	auipc	ra,0x5
    80000a8c:	bf0080e7          	jalr	-1040(ra) # 80005678 <debug.FullPanic((function 'panicHandler')).outOfBounds>
    80000a90:	01813503          	ld	a0,24(sp)

0000000080000a94 <.Lpcrel_hi17>:
    80000a94:	0004b597          	auipc	a1,0x4b
    80000a98:	7aa58593          	addi	a1,a1,1962 # 8004c23e <__anon_2639>
    80000a9c:	00f00613          	li	a2,15
    80000aa0:	0003e097          	auipc	ra,0x3e
    80000aa4:	0e8080e7          	jalr	232(ra) # 8003eb88 <memcpy>
    80000aa8:	04813583          	ld	a1,72(sp)
    80000aac:	05013503          	ld	a0,80(sp)
    80000ab0:	00a5b023          	sd	a0,0(a1)
    80000ab4:	06910593          	addi	a1,sp,105
    80000ab8:	00001537          	lui	a0,0x1
    80000abc:	00f5051b          	addiw	a0,a0,15 # 100f <.Lline_table_start0+0xf61>
    80000ac0:	02b13423          	sd	a1,40(sp)
    80000ac4:	02a13023          	sd	a0,32(sp)
    80000ac8:	f05ff06f          	j	800009cc <.Lpcrel_hi14+0xb8>
    80000acc:	fc5ff06f          	j	80000a90 <.Lpcrel_hi16+0x2c>
    80000ad0:	04813503          	ld	a0,72(sp)
    80000ad4:	00005097          	auipc	ra,0x5
    80000ad8:	f54080e7          	jalr	-172(ra) # 80005a28 <debug.FullPanic((function 'panicHandler')).memcpyAlias>

0000000080000adc <__ubsan_handle_sub_overflow_abort>:
    80000adc:	fe010113          	addi	sp,sp,-32
    80000ae0:	00a13423          	sd	a0,8(sp)
    80000ae4:	00b13823          	sd	a1,16(sp)
    80000ae8:	00c13c23          	sd	a2,24(sp)
    80000aec:	00000097          	auipc	ra,0x0
    80000af0:	c9c080e7          	jalr	-868(ra) # 80000788 <__ubsan_handle_sub_overflow>

0000000080000af4 <__ubsan_handle_alignment_assumption>:
    80000af4:	d6010113          	addi	sp,sp,-672
    80000af8:	28113c23          	sd	ra,664(sp)
    80000afc:	04113423          	sd	ra,72(sp)
    80000b00:	04d13823          	sd	a3,80(sp)
    80000b04:	04c13c23          	sd	a2,88(sp)
    80000b08:	06a13023          	sd	a0,96(sp)
    80000b0c:	06a13823          	sd	a0,112(sp)
    80000b10:	06b13c23          	sd	a1,120(sp)
    80000b14:	08c13023          	sd	a2,128(sp)
    80000b18:	08d13423          	sd	a3,136(sp)
    80000b1c:	02000613          	li	a2,32
    80000b20:	1ac13023          	sd	a2,416(sp)
    80000b24:	09010613          	addi	a2,sp,144
    80000b28:	18c13c23          	sd	a2,408(sp)
    80000b2c:	00000613          	li	a2,0
    80000b30:	18c13823          	sd	a2,400(sp)
    80000b34:	1aa13423          	sd	a0,424(sp)
    80000b38:	40d58533          	sub	a0,a1,a3
    80000b3c:	06a13423          	sd	a0,104(sp)
    80000b40:	00a5b633          	sltu	a2,a1,a0
    80000b44:	00a5fa63          	bgeu	a1,a0,80000b58 <__ubsan_handle_alignment_assumption+0x64>
    80000b48:	0040006f          	j	80000b4c <__ubsan_handle_alignment_assumption+0x58>
    80000b4c:	19010513          	addi	a0,sp,400
    80000b50:	00000097          	auipc	ra,0x0
    80000b54:	200080e7          	jalr	512(ra) # 80000d50 <debug.FullPanic((function 'panicHandler')).integerOverflow>
    80000b58:	06813503          	ld	a0,104(sp)
    80000b5c:	00050593          	mv	a1,a0
    80000b60:	02b13823          	sd	a1,48(sp)
    80000b64:	1aa13823          	sd	a0,432(sp)
    80000b68:	00000593          	li	a1,0
    80000b6c:	40a585b3          	sub	a1,a1,a0
    80000b70:	00b575b3          	and	a1,a0,a1

0000000080000b74 <.Lpcrel_hi18>:
    80000b74:	0004b617          	auipc	a2,0x4b
    80000b78:	32c60613          	addi	a2,a2,812 # 8004bea0 <__anon_6718+0x40>
    80000b7c:	00063603          	ld	a2,0(a2)
    80000b80:	02c585b3          	mul	a1,a1,a2
    80000b84:	03a5d613          	srli	a2,a1,0x3a

0000000080000b88 <.Lpcrel_hi19>:
    80000b88:	00045597          	auipc	a1,0x45
    80000b8c:	47858593          	addi	a1,a1,1144 # 80046000 <.LCPI11_1>
    80000b90:	00c585b3          	add	a1,a1,a2
    80000b94:	0005c583          	lbu	a1,0(a1)
    80000b98:	04000613          	li	a2,64
    80000b9c:	02c13c23          	sd	a2,56(sp)
    80000ba0:	04b13023          	sd	a1,64(sp)
    80000ba4:	00051663          	bnez	a0,80000bb0 <.Lpcrel_hi19+0x28>
    80000ba8:	03813503          	ld	a0,56(sp)
    80000bac:	04a13023          	sd	a0,64(sp)
    80000bb0:	04013583          	ld	a1,64(sp)
    80000bb4:	02b13423          	sd	a1,40(sp)
    80000bb8:	03959513          	slli	a0,a1,0x39
    80000bbc:	07f5f593          	andi	a1,a1,127
    80000bc0:	1ab10fa3          	sb	a1,447(sp)
    80000bc4:	00055a63          	bgez	a0,80000bd8 <.Lpcrel_hi19+0x50>
    80000bc8:	0040006f          	j	80000bcc <.Lpcrel_hi19+0x44>
    80000bcc:	19010513          	addi	a0,sp,400
    80000bd0:	00000097          	auipc	ra,0x0
    80000bd4:	1a8080e7          	jalr	424(ra) # 80000d78 <debug.FullPanic((function 'panicHandler')).integerOutOfBounds>
    80000bd8:	05813503          	ld	a0,88(sp)
    80000bdc:	02813603          	ld	a2,40(sp)
    80000be0:	00100593          	li	a1,1
    80000be4:	00c595b3          	sll	a1,a1,a2
    80000be8:	00b13c23          	sd	a1,24(sp)
    80000bec:	1cb13023          	sd	a1,448(sp)
    80000bf0:	fff50593          	addi	a1,a0,-1
    80000bf4:	02b13023          	sd	a1,32(sp)
    80000bf8:	00b53633          	sltu	a2,a0,a1
    80000bfc:	00b57a63          	bgeu	a0,a1,80000c10 <.Lpcrel_hi19+0x88>
    80000c00:	0040006f          	j	80000c04 <.Lpcrel_hi19+0x7c>
    80000c04:	19010513          	addi	a0,sp,400
    80000c08:	00000097          	auipc	ra,0x0
    80000c0c:	148080e7          	jalr	328(ra) # 80000d50 <debug.FullPanic((function 'panicHandler')).integerOverflow>
    80000c10:	05013503          	ld	a0,80(sp)
    80000c14:	06013583          	ld	a1,96(sp)
    80000c18:	05813603          	ld	a2,88(sp)
    80000c1c:	03013683          	ld	a3,48(sp)
    80000c20:	02013703          	ld	a4,32(sp)
    80000c24:	1ce13423          	sd	a4,456(sp)
    80000c28:	00e6f6b3          	and	a3,a3,a4
    80000c2c:	00d13823          	sd	a3,16(sp)
    80000c30:	1cd13823          	sd	a3,464(sp)
    80000c34:	1ec13023          	sd	a2,480(sp)
    80000c38:	0205b583          	ld	a1,32(a1)
    80000c3c:	1cb13c23          	sd	a1,472(sp)
    80000c40:	08050a63          	beqz	a0,80000cd4 <.Lpcrel_hi19+0x14c>
    80000c44:	0040006f          	j	80000c48 <.Lpcrel_hi19+0xc0>
    80000c48:	05013583          	ld	a1,80(sp)
    80000c4c:	04813503          	ld	a0,72(sp)
    80000c50:	1eb13423          	sd	a1,488(sp)
    80000c54:	1ea13823          	sd	a0,496(sp)
    80000c58:	00100513          	li	a0,1
    80000c5c:	1ea10c23          	sb	a0,504(sp)
    80000c60:	1e013503          	ld	a0,480(sp)
    80000c64:	20a13423          	sd	a0,520(sp)
    80000c68:	1d813503          	ld	a0,472(sp)
    80000c6c:	20a13023          	sd	a0,512(sp)
    80000c70:	1a813503          	ld	a0,424(sp)
    80000c74:	02053583          	ld	a1,32(a0)
    80000c78:	19010513          	addi	a0,sp,400
    80000c7c:	00a13423          	sd	a0,8(sp)
    80000c80:	fffff097          	auipc	ra,0xfffff
    80000c84:	564080e7          	jalr	1380(ra) # 800001e4 <ubsan_rt.TypeDescriptor.getName>
    80000c88:	05013783          	ld	a5,80(sp)
    80000c8c:	01813603          	ld	a2,24(sp)
    80000c90:	00050693          	mv	a3,a0
    80000c94:	00813503          	ld	a0,8(sp)
    80000c98:	00058713          	mv	a4,a1
    80000c9c:	01013583          	ld	a1,16(sp)
    80000ca0:	20813803          	ld	a6,520(sp)
    80000ca4:	21013c23          	sd	a6,536(sp)
    80000ca8:	20013803          	ld	a6,512(sp)
    80000cac:	21013823          	sd	a6,528(sp)
    80000cb0:	22f13023          	sd	a5,544(sp)
    80000cb4:	22e13823          	sd	a4,560(sp)
    80000cb8:	22d13423          	sd	a3,552(sp)
    80000cbc:	22c13c23          	sd	a2,568(sp)
    80000cc0:	24b13023          	sd	a1,576(sp)
    80000cc4:	1f010593          	addi	a1,sp,496
    80000cc8:	21010613          	addi	a2,sp,528
    80000ccc:	00000097          	auipc	ra,0x0
    80000cd0:	0d4080e7          	jalr	212(ra) # 80000da0 <debug.panicExtra__anon_2328>
    80000cd4:	04813503          	ld	a0,72(sp)
    80000cd8:	24a13423          	sd	a0,584(sp)
    80000cdc:	00100513          	li	a0,1
    80000ce0:	24a10823          	sb	a0,592(sp)
    80000ce4:	1e013503          	ld	a0,480(sp)
    80000ce8:	26a13023          	sd	a0,608(sp)
    80000cec:	1d813503          	ld	a0,472(sp)
    80000cf0:	24a13c23          	sd	a0,600(sp)
    80000cf4:	1a813503          	ld	a0,424(sp)
    80000cf8:	02053583          	ld	a1,32(a0)
    80000cfc:	19010513          	addi	a0,sp,400
    80000d00:	00a13023          	sd	a0,0(sp)
    80000d04:	fffff097          	auipc	ra,0xfffff
    80000d08:	4e0080e7          	jalr	1248(ra) # 800001e4 <ubsan_rt.TypeDescriptor.getName>
    80000d0c:	01813603          	ld	a2,24(sp)
    80000d10:	00050693          	mv	a3,a0
    80000d14:	00013503          	ld	a0,0(sp)
    80000d18:	00058713          	mv	a4,a1
    80000d1c:	01013583          	ld	a1,16(sp)
    80000d20:	26013783          	ld	a5,608(sp)
    80000d24:	26f13823          	sd	a5,624(sp)
    80000d28:	25813783          	ld	a5,600(sp)
    80000d2c:	26f13423          	sd	a5,616(sp)
    80000d30:	28e13023          	sd	a4,640(sp)
    80000d34:	26d13c23          	sd	a3,632(sp)
    80000d38:	28c13423          	sd	a2,648(sp)
    80000d3c:	28b13823          	sd	a1,656(sp)
    80000d40:	24810593          	addi	a1,sp,584
    80000d44:	26810613          	addi	a2,sp,616
    80000d48:	00000097          	auipc	ra,0x0
    80000d4c:	254080e7          	jalr	596(ra) # 80000f9c <debug.panicExtra__anon_2346>

0000000080000d50 <debug.FullPanic((function 'panicHandler')).integerOverflow>:
    80000d50:	ff010113          	addi	sp,sp,-16
    80000d54:	00113023          	sd	ra,0(sp)
    80000d58:	00100593          	li	a1,1
    80000d5c:	00b10423          	sb	a1,8(sp)

0000000080000d60 <.Lpcrel_hi20>:
    80000d60:	0004b597          	auipc	a1,0x4b
    80000d64:	41258593          	addi	a1,a1,1042 # 8004c172 <__anon_2806>
    80000d68:	01000613          	li	a2,16
    80000d6c:	00010693          	mv	a3,sp
    80000d70:	00005097          	auipc	ra,0x5
    80000d74:	ce0080e7          	jalr	-800(ra) # 80005a50 <main.panicHandler>

0000000080000d78 <debug.FullPanic((function 'panicHandler')).integerOutOfBounds>:
    80000d78:	ff010113          	addi	sp,sp,-16
    80000d7c:	00113023          	sd	ra,0(sp)
    80000d80:	00100593          	li	a1,1
    80000d84:	00b10423          	sb	a1,8(sp)

0000000080000d88 <.Lpcrel_hi21>:
    80000d88:	0004b597          	auipc	a1,0x4b
    80000d8c:	41258593          	addi	a1,a1,1042 # 8004c19a <__anon_2810>
    80000d90:	02800613          	li	a2,40
    80000d94:	00010693          	mv	a3,sp
    80000d98:	00005097          	auipc	ra,0x5
    80000d9c:	cb8080e7          	jalr	-840(ra) # 80005a50 <main.panicHandler>

0000000080000da0 <debug.panicExtra__anon_2328>:
    80000da0:	81010113          	addi	sp,sp,-2032
    80000da4:	7e113423          	sd	ra,2024(sp)
    80000da8:	80010113          	addi	sp,sp,-2048
    80000dac:	f1010113          	addi	sp,sp,-240
    80000db0:	000016b7          	lui	a3,0x1
    80000db4:	0906869b          	addiw	a3,a3,144 # 1090 <.Lline_table_start0+0xfe2>
    80000db8:	00d106b3          	add	a3,sp,a3
    80000dbc:	02d13823          	sd	a3,48(sp)
    80000dc0:	02c13c23          	sd	a2,56(sp)
    80000dc4:	04b13023          	sd	a1,64(sp)
    80000dc8:	04a13423          	sd	a0,72(sp)
    80000dcc:	00053503          	ld	a0,0(a0)
    80000dd0:	04a13823          	sd	a0,80(sp)

0000000080000dd4 <.Lpcrel_hi22>:
    80000dd4:	0004b517          	auipc	a0,0x4b
    80000dd8:	46a50513          	addi	a0,a0,1130 # 8004c23e <__anon_2639>
    80000ddc:	06a13023          	sd	a0,96(sp)
    80000de0:	00001537          	lui	a0,0x1
    80000de4:	00f5061b          	addiw	a2,a0,15 # 100f <.Lline_table_start0+0xf61>
    80000de8:	06910513          	addi	a0,sp,105
    80000dec:	04a13c23          	sd	a0,88(sp)
    80000df0:	0aa00593          	li	a1,170
    80000df4:	0003e097          	auipc	ra,0x3e
    80000df8:	f8c080e7          	jalr	-116(ra) # 8003ed80 <memset>
    80000dfc:	00100513          	li	a0,1
    80000e00:	06051a63          	bnez	a0,80000e74 <.Lpcrel_hi22+0xa0>
    80000e04:	0740006f          	j	80000e78 <.Lpcrel_hi22+0xa4>
    80000e08:	04813583          	ld	a1,72(sp)
    80000e0c:	05813603          	ld	a2,88(sp)
    80000e10:	00001537          	lui	a0,0x1
    80000e14:	0985051b          	addiw	a0,a0,152 # 1098 <.Lline_table_start0+0xfea>
    80000e18:	00a10533          	add	a0,sp,a0
    80000e1c:	000016b7          	lui	a3,0x1
    80000e20:	00005097          	auipc	ra,0x5
    80000e24:	888080e7          	jalr	-1912(ra) # 800056a8 <Io.Writer.fixed>
    80000e28:	03013683          	ld	a3,48(sp)
    80000e2c:	04813503          	ld	a0,72(sp)
    80000e30:	03813603          	ld	a2,56(sp)
    80000e34:	0206b583          	ld	a1,32(a3) # 1020 <.Lline_table_start0+0xf72>
    80000e38:	00b6b023          	sd	a1,0(a3)
    80000e3c:	0186b583          	ld	a1,24(a3)
    80000e40:	feb6bc23          	sd	a1,-8(a3)
    80000e44:	0106b583          	ld	a1,16(a3)
    80000e48:	feb6b823          	sd	a1,-16(a3)
    80000e4c:	0086b583          	ld	a1,8(a3)
    80000e50:	feb6b423          	sd	a1,-24(a3)
    80000e54:	000015b7          	lui	a1,0x1
    80000e58:	0785859b          	addiw	a1,a1,120 # 1078 <.Lline_table_start0+0xfca>
    80000e5c:	00b105b3          	add	a1,sp,a1
    80000e60:	00005097          	auipc	ra,0x5
    80000e64:	1a4080e7          	jalr	420(ra) # 80006004 <Io.Writer.print__anon_2815>
    80000e68:	03051513          	slli	a0,a0,0x30
    80000e6c:	04050a63          	beqz	a0,80000ec0 <.Lpcrel_hi22+0xec>
    80000e70:	0740006f          	j	80000ee4 <.Lpcrel_hi22+0x110>
    80000e74:	f95ff06f          	j	80000e08 <.Lpcrel_hi22+0x34>
    80000e78:	04813503          	ld	a0,72(sp)
    80000e7c:	000015b7          	lui	a1,0x1
    80000e80:	00f5861b          	addiw	a2,a1,15 # 100f <.Lline_table_start0+0xf61>
    80000e84:	00004097          	auipc	ra,0x4
    80000e88:	7f4080e7          	jalr	2036(ra) # 80005678 <debug.FullPanic((function 'panicHandler')).outOfBounds>
    80000e8c:	04013683          	ld	a3,64(sp)
    80000e90:	04813503          	ld	a0,72(sp)
    80000e94:	03013583          	ld	a1,48(sp)
    80000e98:	02813603          	ld	a2,40(sp)
    80000e9c:	02013703          	ld	a4,32(sp)
    80000ea0:	02c5b423          	sd	a2,40(a1)
    80000ea4:	02e5b823          	sd	a4,48(a1)
    80000ea8:	04e5b023          	sd	a4,64(a1)
    80000eac:	02c5bc23          	sd	a2,56(a1)
    80000eb0:	0405b603          	ld	a2,64(a1)
    80000eb4:	0385b583          	ld	a1,56(a1)
    80000eb8:	00005097          	auipc	ra,0x5
    80000ebc:	b98080e7          	jalr	-1128(ra) # 80005a50 <main.panicHandler>
    80000ec0:	04813503          	ld	a0,72(sp)
    80000ec4:	000015b7          	lui	a1,0x1
    80000ec8:	0785859b          	addiw	a1,a1,120 # 1078 <.Lline_table_start0+0xfca>
    80000ecc:	00b105b3          	add	a1,sp,a1
    80000ed0:	00005097          	auipc	ra,0x5
    80000ed4:	a9c080e7          	jalr	-1380(ra) # 8000596c <Io.Writer.buffered>
    80000ed8:	02a13423          	sd	a0,40(sp)
    80000edc:	02b13023          	sd	a1,32(sp)
    80000ee0:	fadff06f          	j	80000e8c <.Lpcrel_hi22+0xb8>
    80000ee4:	000015b7          	lui	a1,0x1
    80000ee8:	06910513          	addi	a0,sp,105
    80000eec:	00b50533          	add	a0,a0,a1
    80000ef0:	00a13c23          	sd	a0,24(sp)
    80000ef4:	00100513          	li	a0,1
    80000ef8:	02051e63          	bnez	a0,80000f34 <.Lpcrel_hi24+0x10>
    80000efc:	03c0006f          	j	80000f38 <.Lpcrel_hi24+0x14>
    80000f00:	01813503          	ld	a0,24(sp)
    80000f04:	00f50593          	addi	a1,a0,15
    80000f08:	00b13823          	sd	a1,16(sp)

0000000080000f0c <.Lpcrel_hi23>:
    80000f0c:	0004b597          	auipc	a1,0x4b
    80000f10:	33258593          	addi	a1,a1,818 # 8004c23e <__anon_2639>
    80000f14:	00f58593          	addi	a1,a1,15
    80000f18:	06b57a63          	bgeu	a0,a1,80000f8c <.Lpcrel_hi25+0x38>
    80000f1c:	0040006f          	j	80000f20 <.Lpcrel_hi23+0x14>
    80000f20:	01013583          	ld	a1,16(sp)

0000000080000f24 <.Lpcrel_hi24>:
    80000f24:	0004b517          	auipc	a0,0x4b
    80000f28:	31a50513          	addi	a0,a0,794 # 8004c23e <__anon_2639>
    80000f2c:	06b57063          	bgeu	a0,a1,80000f8c <.Lpcrel_hi25+0x38>
    80000f30:	0600006f          	j	80000f90 <.Lpcrel_hi25+0x3c>
    80000f34:	fcdff06f          	j	80000f00 <.Lpcrel_hi22+0x12c>
    80000f38:	04813503          	ld	a0,72(sp)
    80000f3c:	000015b7          	lui	a1,0x1
    80000f40:	00f5861b          	addiw	a2,a1,15 # 100f <.Lline_table_start0+0xf61>
    80000f44:	00060593          	mv	a1,a2
    80000f48:	00004097          	auipc	ra,0x4
    80000f4c:	730080e7          	jalr	1840(ra) # 80005678 <debug.FullPanic((function 'panicHandler')).outOfBounds>
    80000f50:	01813503          	ld	a0,24(sp)

0000000080000f54 <.Lpcrel_hi25>:
    80000f54:	0004b597          	auipc	a1,0x4b
    80000f58:	2ea58593          	addi	a1,a1,746 # 8004c23e <__anon_2639>
    80000f5c:	00f00613          	li	a2,15
    80000f60:	0003e097          	auipc	ra,0x3e
    80000f64:	c28080e7          	jalr	-984(ra) # 8003eb88 <memcpy>
    80000f68:	04813583          	ld	a1,72(sp)
    80000f6c:	05013503          	ld	a0,80(sp)
    80000f70:	00a5b023          	sd	a0,0(a1)
    80000f74:	06910593          	addi	a1,sp,105
    80000f78:	00001537          	lui	a0,0x1
    80000f7c:	00f5051b          	addiw	a0,a0,15 # 100f <.Lline_table_start0+0xf61>
    80000f80:	02b13423          	sd	a1,40(sp)
    80000f84:	02a13023          	sd	a0,32(sp)
    80000f88:	f05ff06f          	j	80000e8c <.Lpcrel_hi22+0xb8>
    80000f8c:	fc5ff06f          	j	80000f50 <.Lpcrel_hi24+0x2c>
    80000f90:	04813503          	ld	a0,72(sp)
    80000f94:	00005097          	auipc	ra,0x5
    80000f98:	a94080e7          	jalr	-1388(ra) # 80005a28 <debug.FullPanic((function 'panicHandler')).memcpyAlias>

0000000080000f9c <debug.panicExtra__anon_2346>:
    80000f9c:	81010113          	addi	sp,sp,-2032
    80000fa0:	7e113423          	sd	ra,2024(sp)
    80000fa4:	80010113          	addi	sp,sp,-2048
    80000fa8:	f1010113          	addi	sp,sp,-240
    80000fac:	000016b7          	lui	a3,0x1
    80000fb0:	0906869b          	addiw	a3,a3,144 # 1090 <.Lline_table_start0+0xfe2>
    80000fb4:	00d106b3          	add	a3,sp,a3
    80000fb8:	02d13823          	sd	a3,48(sp)
    80000fbc:	02c13c23          	sd	a2,56(sp)
    80000fc0:	04b13023          	sd	a1,64(sp)
    80000fc4:	04a13423          	sd	a0,72(sp)
    80000fc8:	00053503          	ld	a0,0(a0)
    80000fcc:	04a13823          	sd	a0,80(sp)

0000000080000fd0 <.Lpcrel_hi26>:
    80000fd0:	0004b517          	auipc	a0,0x4b
    80000fd4:	26e50513          	addi	a0,a0,622 # 8004c23e <__anon_2639>
    80000fd8:	06a13023          	sd	a0,96(sp)
    80000fdc:	00001537          	lui	a0,0x1
    80000fe0:	00f5061b          	addiw	a2,a0,15 # 100f <.Lline_table_start0+0xf61>
    80000fe4:	06910513          	addi	a0,sp,105
    80000fe8:	04a13c23          	sd	a0,88(sp)
    80000fec:	0aa00593          	li	a1,170
    80000ff0:	0003e097          	auipc	ra,0x3e
    80000ff4:	d90080e7          	jalr	-624(ra) # 8003ed80 <memset>
    80000ff8:	00100513          	li	a0,1
    80000ffc:	06051a63          	bnez	a0,80001070 <.Lpcrel_hi26+0xa0>
    80001000:	0740006f          	j	80001074 <.Lpcrel_hi26+0xa4>
    80001004:	04813583          	ld	a1,72(sp)
    80001008:	05813603          	ld	a2,88(sp)
    8000100c:	00001537          	lui	a0,0x1
    80001010:	0985051b          	addiw	a0,a0,152 # 1098 <.Lline_table_start0+0xfea>
    80001014:	00a10533          	add	a0,sp,a0
    80001018:	000016b7          	lui	a3,0x1
    8000101c:	00004097          	auipc	ra,0x4
    80001020:	68c080e7          	jalr	1676(ra) # 800056a8 <Io.Writer.fixed>
    80001024:	03013683          	ld	a3,48(sp)
    80001028:	04813503          	ld	a0,72(sp)
    8000102c:	03813603          	ld	a2,56(sp)
    80001030:	0206b583          	ld	a1,32(a3) # 1020 <.Lline_table_start0+0xf72>
    80001034:	00b6b023          	sd	a1,0(a3)
    80001038:	0186b583          	ld	a1,24(a3)
    8000103c:	feb6bc23          	sd	a1,-8(a3)
    80001040:	0106b583          	ld	a1,16(a3)
    80001044:	feb6b823          	sd	a1,-16(a3)
    80001048:	0086b583          	ld	a1,8(a3)
    8000104c:	feb6b423          	sd	a1,-24(a3)
    80001050:	000015b7          	lui	a1,0x1
    80001054:	0785859b          	addiw	a1,a1,120 # 1078 <.Lline_table_start0+0xfca>
    80001058:	00b105b3          	add	a1,sp,a1
    8000105c:	00005097          	auipc	ra,0x5
    80001060:	378080e7          	jalr	888(ra) # 800063d4 <Io.Writer.print__anon_2817>
    80001064:	03051513          	slli	a0,a0,0x30
    80001068:	04050a63          	beqz	a0,800010bc <.Lpcrel_hi26+0xec>
    8000106c:	0740006f          	j	800010e0 <.Lpcrel_hi26+0x110>
    80001070:	f95ff06f          	j	80001004 <.Lpcrel_hi26+0x34>
    80001074:	04813503          	ld	a0,72(sp)
    80001078:	000015b7          	lui	a1,0x1
    8000107c:	00f5861b          	addiw	a2,a1,15 # 100f <.Lline_table_start0+0xf61>
    80001080:	00004097          	auipc	ra,0x4
    80001084:	5f8080e7          	jalr	1528(ra) # 80005678 <debug.FullPanic((function 'panicHandler')).outOfBounds>
    80001088:	04013683          	ld	a3,64(sp)
    8000108c:	04813503          	ld	a0,72(sp)
    80001090:	03013583          	ld	a1,48(sp)
    80001094:	02813603          	ld	a2,40(sp)
    80001098:	02013703          	ld	a4,32(sp)
    8000109c:	02c5b423          	sd	a2,40(a1)
    800010a0:	02e5b823          	sd	a4,48(a1)
    800010a4:	04e5b023          	sd	a4,64(a1)
    800010a8:	02c5bc23          	sd	a2,56(a1)
    800010ac:	0405b603          	ld	a2,64(a1)
    800010b0:	0385b583          	ld	a1,56(a1)
    800010b4:	00005097          	auipc	ra,0x5
    800010b8:	99c080e7          	jalr	-1636(ra) # 80005a50 <main.panicHandler>
    800010bc:	04813503          	ld	a0,72(sp)
    800010c0:	000015b7          	lui	a1,0x1
    800010c4:	0785859b          	addiw	a1,a1,120 # 1078 <.Lline_table_start0+0xfca>
    800010c8:	00b105b3          	add	a1,sp,a1
    800010cc:	00005097          	auipc	ra,0x5
    800010d0:	8a0080e7          	jalr	-1888(ra) # 8000596c <Io.Writer.buffered>
    800010d4:	02a13423          	sd	a0,40(sp)
    800010d8:	02b13023          	sd	a1,32(sp)
    800010dc:	fadff06f          	j	80001088 <.Lpcrel_hi26+0xb8>
    800010e0:	000015b7          	lui	a1,0x1
    800010e4:	06910513          	addi	a0,sp,105
    800010e8:	00b50533          	add	a0,a0,a1
    800010ec:	00a13c23          	sd	a0,24(sp)
    800010f0:	00100513          	li	a0,1
    800010f4:	02051e63          	bnez	a0,80001130 <.Lpcrel_hi28+0x10>
    800010f8:	03c0006f          	j	80001134 <.Lpcrel_hi28+0x14>
    800010fc:	01813503          	ld	a0,24(sp)
    80001100:	00f50593          	addi	a1,a0,15
    80001104:	00b13823          	sd	a1,16(sp)

0000000080001108 <.Lpcrel_hi27>:
    80001108:	0004b597          	auipc	a1,0x4b
    8000110c:	13658593          	addi	a1,a1,310 # 8004c23e <__anon_2639>
    80001110:	00f58593          	addi	a1,a1,15
    80001114:	06b57a63          	bgeu	a0,a1,80001188 <.Lpcrel_hi29+0x38>
    80001118:	0040006f          	j	8000111c <.Lpcrel_hi27+0x14>
    8000111c:	01013583          	ld	a1,16(sp)

0000000080001120 <.Lpcrel_hi28>:
    80001120:	0004b517          	auipc	a0,0x4b
    80001124:	11e50513          	addi	a0,a0,286 # 8004c23e <__anon_2639>
    80001128:	06b57063          	bgeu	a0,a1,80001188 <.Lpcrel_hi29+0x38>
    8000112c:	0600006f          	j	8000118c <.Lpcrel_hi29+0x3c>
    80001130:	fcdff06f          	j	800010fc <.Lpcrel_hi26+0x12c>
    80001134:	04813503          	ld	a0,72(sp)
    80001138:	000015b7          	lui	a1,0x1
    8000113c:	00f5861b          	addiw	a2,a1,15 # 100f <.Lline_table_start0+0xf61>
    80001140:	00060593          	mv	a1,a2
    80001144:	00004097          	auipc	ra,0x4
    80001148:	534080e7          	jalr	1332(ra) # 80005678 <debug.FullPanic((function 'panicHandler')).outOfBounds>
    8000114c:	01813503          	ld	a0,24(sp)

0000000080001150 <.Lpcrel_hi29>:
    80001150:	0004b597          	auipc	a1,0x4b
    80001154:	0ee58593          	addi	a1,a1,238 # 8004c23e <__anon_2639>
    80001158:	00f00613          	li	a2,15
    8000115c:	0003e097          	auipc	ra,0x3e
    80001160:	a2c080e7          	jalr	-1492(ra) # 8003eb88 <memcpy>
    80001164:	04813583          	ld	a1,72(sp)
    80001168:	05013503          	ld	a0,80(sp)
    8000116c:	00a5b023          	sd	a0,0(a1)
    80001170:	06910593          	addi	a1,sp,105
    80001174:	00001537          	lui	a0,0x1
    80001178:	00f5051b          	addiw	a0,a0,15 # 100f <.Lline_table_start0+0xf61>
    8000117c:	02b13423          	sd	a1,40(sp)
    80001180:	02a13023          	sd	a0,32(sp)
    80001184:	f05ff06f          	j	80001088 <.Lpcrel_hi26+0xb8>
    80001188:	fc5ff06f          	j	8000114c <.Lpcrel_hi28+0x2c>
    8000118c:	04813503          	ld	a0,72(sp)
    80001190:	00005097          	auipc	ra,0x5
    80001194:	898080e7          	jalr	-1896(ra) # 80005a28 <debug.FullPanic((function 'panicHandler')).memcpyAlias>

0000000080001198 <__ubsan_handle_alignment_assumption_abort>:
    80001198:	fe010113          	addi	sp,sp,-32
    8000119c:	00a13023          	sd	a0,0(sp)
    800011a0:	00b13423          	sd	a1,8(sp)
    800011a4:	00c13823          	sd	a2,16(sp)
    800011a8:	00d13c23          	sd	a3,24(sp)
    800011ac:	00000097          	auipc	ra,0x0
    800011b0:	948080e7          	jalr	-1720(ra) # 80000af4 <__ubsan_handle_alignment_assumption>

00000000800011b4 <__ubsan_handle_divrem_overflow>:
    800011b4:	e3010113          	addi	sp,sp,-464
    800011b8:	1c113423          	sd	ra,456(sp)
    800011bc:	00113c23          	sd	ra,24(sp)
    800011c0:	02a13023          	sd	a0,32(sp)
    800011c4:	02b13423          	sd	a1,40(sp)
    800011c8:	02c13823          	sd	a2,48(sp)
    800011cc:	02000693          	li	a3,32
    800011d0:	14d13423          	sd	a3,328(sp)
    800011d4:	03810693          	addi	a3,sp,56
    800011d8:	14d13023          	sd	a3,320(sp)
    800011dc:	00000693          	li	a3,0
    800011e0:	12d13c23          	sd	a3,312(sp)
    800011e4:	14a13823          	sd	a0,336(sp)
    800011e8:	16b13023          	sd	a1,352(sp)
    800011ec:	01053583          	ld	a1,16(a0)
    800011f0:	14b13c23          	sd	a1,344(sp)
    800011f4:	16c13823          	sd	a2,368(sp)
    800011f8:	01053503          	ld	a0,16(a0)
    800011fc:	16a13423          	sd	a0,360(sp)
    80001200:	13810513          	addi	a0,sp,312
    80001204:	16810593          	addi	a1,sp,360
    80001208:	00000097          	auipc	ra,0x0
    8000120c:	0a8080e7          	jalr	168(ra) # 800012b0 <ubsan_rt.Value.isMinusOne>
    80001210:	00157513          	andi	a0,a0,1
    80001214:	06050e63          	beqz	a0,80001290 <__ubsan_handle_divrem_overflow+0xdc>
    80001218:	0040006f          	j	8000121c <__ubsan_handle_divrem_overflow+0x68>
    8000121c:	01813503          	ld	a0,24(sp)
    80001220:	16a13c23          	sd	a0,376(sp)
    80001224:	00100513          	li	a0,1
    80001228:	18a10023          	sb	a0,384(sp)
    8000122c:	16013503          	ld	a0,352(sp)
    80001230:	18a13823          	sd	a0,400(sp)
    80001234:	15813503          	ld	a0,344(sp)
    80001238:	18a13423          	sd	a0,392(sp)
    8000123c:	15013503          	ld	a0,336(sp)
    80001240:	01053583          	ld	a1,16(a0)
    80001244:	13810513          	addi	a0,sp,312
    80001248:	00a13423          	sd	a0,8(sp)
    8000124c:	fffff097          	auipc	ra,0xfffff
    80001250:	f98080e7          	jalr	-104(ra) # 800001e4 <ubsan_rt.TypeDescriptor.getName>
    80001254:	00050613          	mv	a2,a0
    80001258:	00813503          	ld	a0,8(sp)
    8000125c:	00c13823          	sd	a2,16(sp)
    80001260:	00058613          	mv	a2,a1
    80001264:	01013583          	ld	a1,16(sp)
    80001268:	19013683          	ld	a3,400(sp)
    8000126c:	1ad13023          	sd	a3,416(sp)
    80001270:	18813683          	ld	a3,392(sp)
    80001274:	18d13c23          	sd	a3,408(sp)
    80001278:	1ac13823          	sd	a2,432(sp)
    8000127c:	1ab13423          	sd	a1,424(sp)
    80001280:	17810593          	addi	a1,sp,376
    80001284:	19810613          	addi	a2,sp,408
    80001288:	00000097          	auipc	ra,0x0
    8000128c:	09c080e7          	jalr	156(ra) # 80001324 <debug.panicExtra__anon_2360>
    80001290:	01813503          	ld	a0,24(sp)
    80001294:	1aa13c23          	sd	a0,440(sp)
    80001298:	00100513          	li	a0,1
    8000129c:	1ca10023          	sb	a0,448(sp)
    800012a0:	13810513          	addi	a0,sp,312
    800012a4:	1b810593          	addi	a1,sp,440
    800012a8:	00000097          	auipc	ra,0x0
    800012ac:	278080e7          	jalr	632(ra) # 80001520 <debug.panicExtra__anon_2366>

00000000800012b0 <ubsan_rt.Value.isMinusOne>:
    800012b0:	fd010113          	addi	sp,sp,-48
    800012b4:	02113423          	sd	ra,40(sp)
    800012b8:	00a13823          	sd	a0,16(sp)
    800012bc:	0085b603          	ld	a2,8(a1)
    800012c0:	02c13023          	sd	a2,32(sp)
    800012c4:	0005b583          	ld	a1,0(a1)
    800012c8:	00b13c23          	sd	a1,24(sp)
    800012cc:	01813583          	ld	a1,24(sp)
    800012d0:	fffff097          	auipc	ra,0xfffff
    800012d4:	ed8080e7          	jalr	-296(ra) # 800001a8 <ubsan_rt.TypeDescriptor.isSigned>
    800012d8:	00157513          	andi	a0,a0,1
    800012dc:	00051c63          	bnez	a0,800012f4 <ubsan_rt.Value.isMinusOne+0x44>
    800012e0:	0380006f          	j	80001318 <ubsan_rt.Value.isMinusOne+0x68>
    800012e4:	00813503          	ld	a0,8(sp)
    800012e8:	02813083          	ld	ra,40(sp)
    800012ec:	03010113          	addi	sp,sp,48
    800012f0:	00008067          	ret
    800012f4:	01013503          	ld	a0,16(sp)
    800012f8:	01810593          	addi	a1,sp,24
    800012fc:	00005097          	auipc	ra,0x5
    80001300:	3fc080e7          	jalr	1020(ra) # 800066f8 <ubsan_rt.Value.getSignedInteger>
    80001304:	00b57533          	and	a0,a0,a1
    80001308:	00150513          	addi	a0,a0,1
    8000130c:	00153513          	seqz	a0,a0
    80001310:	00a13423          	sd	a0,8(sp)
    80001314:	fd1ff06f          	j	800012e4 <ubsan_rt.Value.isMinusOne+0x34>
    80001318:	00000513          	li	a0,0
    8000131c:	00a13423          	sd	a0,8(sp)
    80001320:	fc5ff06f          	j	800012e4 <ubsan_rt.Value.isMinusOne+0x34>

0000000080001324 <debug.panicExtra__anon_2360>:
    80001324:	81010113          	addi	sp,sp,-2032
    80001328:	7e113423          	sd	ra,2024(sp)
    8000132c:	80010113          	addi	sp,sp,-2048
    80001330:	f1010113          	addi	sp,sp,-240
    80001334:	000016b7          	lui	a3,0x1
    80001338:	0906869b          	addiw	a3,a3,144 # 1090 <.Lline_table_start0+0xfe2>
    8000133c:	00d106b3          	add	a3,sp,a3
    80001340:	02d13823          	sd	a3,48(sp)
    80001344:	02c13c23          	sd	a2,56(sp)
    80001348:	04b13023          	sd	a1,64(sp)
    8000134c:	04a13423          	sd	a0,72(sp)
    80001350:	00053503          	ld	a0,0(a0)
    80001354:	04a13823          	sd	a0,80(sp)

0000000080001358 <.Lpcrel_hi30>:
    80001358:	0004b517          	auipc	a0,0x4b
    8000135c:	ee650513          	addi	a0,a0,-282 # 8004c23e <__anon_2639>
    80001360:	06a13023          	sd	a0,96(sp)
    80001364:	00001537          	lui	a0,0x1
    80001368:	00f5061b          	addiw	a2,a0,15 # 100f <.Lline_table_start0+0xf61>
    8000136c:	06910513          	addi	a0,sp,105
    80001370:	04a13c23          	sd	a0,88(sp)
    80001374:	0aa00593          	li	a1,170
    80001378:	0003e097          	auipc	ra,0x3e
    8000137c:	a08080e7          	jalr	-1528(ra) # 8003ed80 <memset>
    80001380:	00100513          	li	a0,1
    80001384:	06051a63          	bnez	a0,800013f8 <.Lpcrel_hi30+0xa0>
    80001388:	0740006f          	j	800013fc <.Lpcrel_hi30+0xa4>
    8000138c:	04813583          	ld	a1,72(sp)
    80001390:	05813603          	ld	a2,88(sp)
    80001394:	00001537          	lui	a0,0x1
    80001398:	0985051b          	addiw	a0,a0,152 # 1098 <.Lline_table_start0+0xfea>
    8000139c:	00a10533          	add	a0,sp,a0
    800013a0:	000016b7          	lui	a3,0x1
    800013a4:	00004097          	auipc	ra,0x4
    800013a8:	304080e7          	jalr	772(ra) # 800056a8 <Io.Writer.fixed>
    800013ac:	03013683          	ld	a3,48(sp)
    800013b0:	04813503          	ld	a0,72(sp)
    800013b4:	03813603          	ld	a2,56(sp)
    800013b8:	0206b583          	ld	a1,32(a3) # 1020 <.Lline_table_start0+0xf72>
    800013bc:	00b6b023          	sd	a1,0(a3)
    800013c0:	0186b583          	ld	a1,24(a3)
    800013c4:	feb6bc23          	sd	a1,-8(a3)
    800013c8:	0106b583          	ld	a1,16(a3)
    800013cc:	feb6b823          	sd	a1,-16(a3)
    800013d0:	0086b583          	ld	a1,8(a3)
    800013d4:	feb6b423          	sd	a1,-24(a3)
    800013d8:	000015b7          	lui	a1,0x1
    800013dc:	0785859b          	addiw	a1,a1,120 # 1078 <.Lline_table_start0+0xfca>
    800013e0:	00b105b3          	add	a1,sp,a1
    800013e4:	00005097          	auipc	ra,0x5
    800013e8:	4b8080e7          	jalr	1208(ra) # 8000689c <Io.Writer.print__anon_2828>
    800013ec:	03051513          	slli	a0,a0,0x30
    800013f0:	04050a63          	beqz	a0,80001444 <.Lpcrel_hi30+0xec>
    800013f4:	0740006f          	j	80001468 <.Lpcrel_hi30+0x110>
    800013f8:	f95ff06f          	j	8000138c <.Lpcrel_hi30+0x34>
    800013fc:	04813503          	ld	a0,72(sp)
    80001400:	000015b7          	lui	a1,0x1
    80001404:	00f5861b          	addiw	a2,a1,15 # 100f <.Lline_table_start0+0xf61>
    80001408:	00004097          	auipc	ra,0x4
    8000140c:	270080e7          	jalr	624(ra) # 80005678 <debug.FullPanic((function 'panicHandler')).outOfBounds>
    80001410:	04013683          	ld	a3,64(sp)
    80001414:	04813503          	ld	a0,72(sp)
    80001418:	03013583          	ld	a1,48(sp)
    8000141c:	02813603          	ld	a2,40(sp)
    80001420:	02013703          	ld	a4,32(sp)
    80001424:	02c5b423          	sd	a2,40(a1)
    80001428:	02e5b823          	sd	a4,48(a1)
    8000142c:	04e5b023          	sd	a4,64(a1)
    80001430:	02c5bc23          	sd	a2,56(a1)
    80001434:	0405b603          	ld	a2,64(a1)
    80001438:	0385b583          	ld	a1,56(a1)
    8000143c:	00004097          	auipc	ra,0x4
    80001440:	614080e7          	jalr	1556(ra) # 80005a50 <main.panicHandler>
    80001444:	04813503          	ld	a0,72(sp)
    80001448:	000015b7          	lui	a1,0x1
    8000144c:	0785859b          	addiw	a1,a1,120 # 1078 <.Lline_table_start0+0xfca>
    80001450:	00b105b3          	add	a1,sp,a1
    80001454:	00004097          	auipc	ra,0x4
    80001458:	518080e7          	jalr	1304(ra) # 8000596c <Io.Writer.buffered>
    8000145c:	02a13423          	sd	a0,40(sp)
    80001460:	02b13023          	sd	a1,32(sp)
    80001464:	fadff06f          	j	80001410 <.Lpcrel_hi30+0xb8>
    80001468:	000015b7          	lui	a1,0x1
    8000146c:	06910513          	addi	a0,sp,105
    80001470:	00b50533          	add	a0,a0,a1
    80001474:	00a13c23          	sd	a0,24(sp)
    80001478:	00100513          	li	a0,1
    8000147c:	02051e63          	bnez	a0,800014b8 <.Lpcrel_hi32+0x10>
    80001480:	03c0006f          	j	800014bc <.Lpcrel_hi32+0x14>
    80001484:	01813503          	ld	a0,24(sp)
    80001488:	00f50593          	addi	a1,a0,15
    8000148c:	00b13823          	sd	a1,16(sp)

0000000080001490 <.Lpcrel_hi31>:
    80001490:	0004b597          	auipc	a1,0x4b
    80001494:	dae58593          	addi	a1,a1,-594 # 8004c23e <__anon_2639>
    80001498:	00f58593          	addi	a1,a1,15
    8000149c:	06b57a63          	bgeu	a0,a1,80001510 <.Lpcrel_hi33+0x38>
    800014a0:	0040006f          	j	800014a4 <.Lpcrel_hi31+0x14>
    800014a4:	01013583          	ld	a1,16(sp)

00000000800014a8 <.Lpcrel_hi32>:
    800014a8:	0004b517          	auipc	a0,0x4b
    800014ac:	d9650513          	addi	a0,a0,-618 # 8004c23e <__anon_2639>
    800014b0:	06b57063          	bgeu	a0,a1,80001510 <.Lpcrel_hi33+0x38>
    800014b4:	0600006f          	j	80001514 <.Lpcrel_hi33+0x3c>
    800014b8:	fcdff06f          	j	80001484 <.Lpcrel_hi30+0x12c>
    800014bc:	04813503          	ld	a0,72(sp)
    800014c0:	000015b7          	lui	a1,0x1
    800014c4:	00f5861b          	addiw	a2,a1,15 # 100f <.Lline_table_start0+0xf61>
    800014c8:	00060593          	mv	a1,a2
    800014cc:	00004097          	auipc	ra,0x4
    800014d0:	1ac080e7          	jalr	428(ra) # 80005678 <debug.FullPanic((function 'panicHandler')).outOfBounds>
    800014d4:	01813503          	ld	a0,24(sp)

00000000800014d8 <.Lpcrel_hi33>:
    800014d8:	0004b597          	auipc	a1,0x4b
    800014dc:	d6658593          	addi	a1,a1,-666 # 8004c23e <__anon_2639>
    800014e0:	00f00613          	li	a2,15
    800014e4:	0003d097          	auipc	ra,0x3d
    800014e8:	6a4080e7          	jalr	1700(ra) # 8003eb88 <memcpy>
    800014ec:	04813583          	ld	a1,72(sp)
    800014f0:	05013503          	ld	a0,80(sp)
    800014f4:	00a5b023          	sd	a0,0(a1)
    800014f8:	06910593          	addi	a1,sp,105
    800014fc:	00001537          	lui	a0,0x1
    80001500:	00f5051b          	addiw	a0,a0,15 # 100f <.Lline_table_start0+0xf61>
    80001504:	02b13423          	sd	a1,40(sp)
    80001508:	02a13023          	sd	a0,32(sp)
    8000150c:	f05ff06f          	j	80001410 <.Lpcrel_hi30+0xb8>
    80001510:	fc5ff06f          	j	800014d4 <.Lpcrel_hi32+0x2c>
    80001514:	04813503          	ld	a0,72(sp)
    80001518:	00004097          	auipc	ra,0x4
    8000151c:	510080e7          	jalr	1296(ra) # 80005a28 <debug.FullPanic((function 'panicHandler')).memcpyAlias>

0000000080001520 <debug.panicExtra__anon_2366>:
    80001520:	81010113          	addi	sp,sp,-2032
    80001524:	7e113423          	sd	ra,2024(sp)
    80001528:	80010113          	addi	sp,sp,-2048
    8000152c:	f2010113          	addi	sp,sp,-224
    80001530:	00001637          	lui	a2,0x1
    80001534:	0806061b          	addiw	a2,a2,128 # 1080 <.Lline_table_start0+0xfd2>
    80001538:	00c10633          	add	a2,sp,a2
    8000153c:	02c13423          	sd	a2,40(sp)
    80001540:	02b13823          	sd	a1,48(sp)
    80001544:	02a13c23          	sd	a0,56(sp)
    80001548:	00053503          	ld	a0,0(a0)
    8000154c:	04a13023          	sd	a0,64(sp)

0000000080001550 <.Lpcrel_hi34>:
    80001550:	0004b517          	auipc	a0,0x4b
    80001554:	cee50513          	addi	a0,a0,-786 # 8004c23e <__anon_2639>
    80001558:	04a13823          	sd	a0,80(sp)
    8000155c:	00001537          	lui	a0,0x1
    80001560:	00f5061b          	addiw	a2,a0,15 # 100f <.Lline_table_start0+0xf61>
    80001564:	05910513          	addi	a0,sp,89
    80001568:	04a13423          	sd	a0,72(sp)
    8000156c:	0aa00593          	li	a1,170
    80001570:	0003e097          	auipc	ra,0x3e
    80001574:	810080e7          	jalr	-2032(ra) # 8003ed80 <memset>
    80001578:	00100513          	li	a0,1
    8000157c:	06051863          	bnez	a0,800015ec <.Lpcrel_hi34+0x9c>
    80001580:	0700006f          	j	800015f0 <.Lpcrel_hi34+0xa0>
    80001584:	03813583          	ld	a1,56(sp)
    80001588:	04813603          	ld	a2,72(sp)
    8000158c:	00001537          	lui	a0,0x1
    80001590:	0885051b          	addiw	a0,a0,136 # 1088 <.Lline_table_start0+0xfda>
    80001594:	00a10533          	add	a0,sp,a0
    80001598:	000016b7          	lui	a3,0x1
    8000159c:	00004097          	auipc	ra,0x4
    800015a0:	10c080e7          	jalr	268(ra) # 800056a8 <Io.Writer.fixed>
    800015a4:	02813603          	ld	a2,40(sp)
    800015a8:	03813503          	ld	a0,56(sp)
    800015ac:	02063583          	ld	a1,32(a2)
    800015b0:	00b63023          	sd	a1,0(a2)
    800015b4:	01863583          	ld	a1,24(a2)
    800015b8:	feb63c23          	sd	a1,-8(a2)
    800015bc:	01063583          	ld	a1,16(a2)
    800015c0:	feb63823          	sd	a1,-16(a2)
    800015c4:	00863583          	ld	a1,8(a2)
    800015c8:	feb63423          	sd	a1,-24(a2)
    800015cc:	000015b7          	lui	a1,0x1
    800015d0:	0685859b          	addiw	a1,a1,104 # 1068 <.Lline_table_start0+0xfba>
    800015d4:	00b105b3          	add	a1,sp,a1
    800015d8:	00005097          	auipc	ra,0x5
    800015dc:	448080e7          	jalr	1096(ra) # 80006a20 <Io.Writer.print__anon_2830>
    800015e0:	03051513          	slli	a0,a0,0x30
    800015e4:	04050a63          	beqz	a0,80001638 <.Lpcrel_hi34+0xe8>
    800015e8:	0740006f          	j	8000165c <.Lpcrel_hi34+0x10c>
    800015ec:	f99ff06f          	j	80001584 <.Lpcrel_hi34+0x34>
    800015f0:	03813503          	ld	a0,56(sp)
    800015f4:	000015b7          	lui	a1,0x1
    800015f8:	00f5861b          	addiw	a2,a1,15 # 100f <.Lline_table_start0+0xf61>
    800015fc:	00004097          	auipc	ra,0x4
    80001600:	07c080e7          	jalr	124(ra) # 80005678 <debug.FullPanic((function 'panicHandler')).outOfBounds>
    80001604:	03013683          	ld	a3,48(sp)
    80001608:	03813503          	ld	a0,56(sp)
    8000160c:	02813583          	ld	a1,40(sp)
    80001610:	02013603          	ld	a2,32(sp)
    80001614:	01813703          	ld	a4,24(sp)
    80001618:	02c5b423          	sd	a2,40(a1)
    8000161c:	02e5b823          	sd	a4,48(a1)
    80001620:	04e5b023          	sd	a4,64(a1)
    80001624:	02c5bc23          	sd	a2,56(a1)
    80001628:	0405b603          	ld	a2,64(a1)
    8000162c:	0385b583          	ld	a1,56(a1)
    80001630:	00004097          	auipc	ra,0x4
    80001634:	420080e7          	jalr	1056(ra) # 80005a50 <main.panicHandler>
    80001638:	03813503          	ld	a0,56(sp)
    8000163c:	000015b7          	lui	a1,0x1
    80001640:	0685859b          	addiw	a1,a1,104 # 1068 <.Lline_table_start0+0xfba>
    80001644:	00b105b3          	add	a1,sp,a1
    80001648:	00004097          	auipc	ra,0x4
    8000164c:	324080e7          	jalr	804(ra) # 8000596c <Io.Writer.buffered>
    80001650:	02a13023          	sd	a0,32(sp)
    80001654:	00b13c23          	sd	a1,24(sp)
    80001658:	fadff06f          	j	80001604 <.Lpcrel_hi34+0xb4>
    8000165c:	000015b7          	lui	a1,0x1
    80001660:	05910513          	addi	a0,sp,89
    80001664:	00b50533          	add	a0,a0,a1
    80001668:	00a13823          	sd	a0,16(sp)
    8000166c:	00100513          	li	a0,1
    80001670:	02051e63          	bnez	a0,800016ac <.Lpcrel_hi36+0x10>
    80001674:	03c0006f          	j	800016b0 <.Lpcrel_hi36+0x14>
    80001678:	01013503          	ld	a0,16(sp)
    8000167c:	00f50593          	addi	a1,a0,15
    80001680:	00b13423          	sd	a1,8(sp)

0000000080001684 <.Lpcrel_hi35>:
    80001684:	0004b597          	auipc	a1,0x4b
    80001688:	bba58593          	addi	a1,a1,-1094 # 8004c23e <__anon_2639>
    8000168c:	00f58593          	addi	a1,a1,15
    80001690:	06b57a63          	bgeu	a0,a1,80001704 <.Lpcrel_hi37+0x38>
    80001694:	0040006f          	j	80001698 <.Lpcrel_hi35+0x14>
    80001698:	00813583          	ld	a1,8(sp)

000000008000169c <.Lpcrel_hi36>:
    8000169c:	0004b517          	auipc	a0,0x4b
    800016a0:	ba250513          	addi	a0,a0,-1118 # 8004c23e <__anon_2639>
    800016a4:	06b57063          	bgeu	a0,a1,80001704 <.Lpcrel_hi37+0x38>
    800016a8:	0600006f          	j	80001708 <.Lpcrel_hi37+0x3c>
    800016ac:	fcdff06f          	j	80001678 <.Lpcrel_hi34+0x128>
    800016b0:	03813503          	ld	a0,56(sp)
    800016b4:	000015b7          	lui	a1,0x1
    800016b8:	00f5861b          	addiw	a2,a1,15 # 100f <.Lline_table_start0+0xf61>
    800016bc:	00060593          	mv	a1,a2
    800016c0:	00004097          	auipc	ra,0x4
    800016c4:	fb8080e7          	jalr	-72(ra) # 80005678 <debug.FullPanic((function 'panicHandler')).outOfBounds>
    800016c8:	01013503          	ld	a0,16(sp)

00000000800016cc <.Lpcrel_hi37>:
    800016cc:	0004b597          	auipc	a1,0x4b
    800016d0:	b7258593          	addi	a1,a1,-1166 # 8004c23e <__anon_2639>
    800016d4:	00f00613          	li	a2,15
    800016d8:	0003d097          	auipc	ra,0x3d
    800016dc:	4b0080e7          	jalr	1200(ra) # 8003eb88 <memcpy>
    800016e0:	03813583          	ld	a1,56(sp)
    800016e4:	04013503          	ld	a0,64(sp)
    800016e8:	00a5b023          	sd	a0,0(a1)
    800016ec:	05910593          	addi	a1,sp,89
    800016f0:	00001537          	lui	a0,0x1
    800016f4:	00f5051b          	addiw	a0,a0,15 # 100f <.Lline_table_start0+0xf61>
    800016f8:	02b13023          	sd	a1,32(sp)
    800016fc:	00a13c23          	sd	a0,24(sp)
    80001700:	f05ff06f          	j	80001604 <.Lpcrel_hi34+0xb4>
    80001704:	fc5ff06f          	j	800016c8 <.Lpcrel_hi36+0x2c>
    80001708:	03813503          	ld	a0,56(sp)
    8000170c:	00004097          	auipc	ra,0x4
    80001710:	31c080e7          	jalr	796(ra) # 80005a28 <debug.FullPanic((function 'panicHandler')).memcpyAlias>

0000000080001714 <__ubsan_handle_divrem_overflow_abort>:
    80001714:	fe010113          	addi	sp,sp,-32
    80001718:	00a13423          	sd	a0,8(sp)
    8000171c:	00b13823          	sd	a1,16(sp)
    80001720:	00c13c23          	sd	a2,24(sp)
    80001724:	00000097          	auipc	ra,0x0
    80001728:	a90080e7          	jalr	-1392(ra) # 800011b4 <__ubsan_handle_divrem_overflow>

000000008000172c <__ubsan_handle_float_cast_overflow>:
    8000172c:	db010113          	addi	sp,sp,-592
    80001730:	24113423          	sd	ra,584(sp)
    80001734:	02113c23          	sd	ra,56(sp)
    80001738:	04b13023          	sd	a1,64(sp)
    8000173c:	00050613          	mv	a2,a0
    80001740:	04c13423          	sd	a2,72(sp)
    80001744:	04c13c23          	sd	a2,88(sp)
    80001748:	06b13023          	sd	a1,96(sp)
    8000174c:	02000513          	li	a0,32
    80001750:	16a13c23          	sd	a0,376(sp)
    80001754:	06810513          	addi	a0,sp,104
    80001758:	16a13823          	sd	a0,368(sp)
    8000175c:	00000513          	li	a0,0
    80001760:	16a13423          	sd	a0,360(sp)
    80001764:	18c13023          	sd	a2,384(sp)
    80001768:	00064583          	lbu	a1,0(a2)
    8000176c:	00164603          	lbu	a2,1(a2)
    80001770:	00c585b3          	add	a1,a1,a2
    80001774:	04b13823          	sd	a1,80(sp)
    80001778:	00100513          	li	a0,1
    8000177c:	00051a63          	bnez	a0,80001790 <__ubsan_handle_float_cast_overflow+0x64>
    80001780:	0040006f          	j	80001784 <__ubsan_handle_float_cast_overflow+0x58>
    80001784:	16810513          	addi	a0,sp,360
    80001788:	fffff097          	auipc	ra,0xfffff
    8000178c:	5c8080e7          	jalr	1480(ra) # 80000d50 <debug.FullPanic((function 'panicHandler')).integerOverflow>
    80001790:	05013503          	ld	a0,80(sp)
    80001794:	03051513          	slli	a0,a0,0x30
    80001798:	03055513          	srli	a0,a0,0x30
    8000179c:	00200593          	li	a1,2
    800017a0:	00b56c63          	bltu	a0,a1,800017b8 <__ubsan_handle_float_cast_overflow+0x8c>
    800017a4:	0200006f          	j	800017c4 <__ubsan_handle_float_cast_overflow+0x98>
    800017a8:	03013503          	ld	a0,48(sp)
    800017ac:	00157513          	andi	a0,a0,1
    800017b0:	02051e63          	bnez	a0,800017ec <__ubsan_handle_float_cast_overflow+0xc0>
    800017b4:	0440006f          	j	800017f8 <__ubsan_handle_float_cast_overflow+0xcc>
    800017b8:	00100513          	li	a0,1
    800017bc:	02a13823          	sd	a0,48(sp)
    800017c0:	fe9ff06f          	j	800017a8 <__ubsan_handle_float_cast_overflow+0x7c>
    800017c4:	04813503          	ld	a0,72(sp)
    800017c8:	00054503          	lbu	a0,0(a0)
    800017cc:	f0150513          	addi	a0,a0,-255
    800017d0:	00153513          	seqz	a0,a0
    800017d4:	02a13823          	sd	a0,48(sp)
    800017d8:	fd1ff06f          	j	800017a8 <__ubsan_handle_float_cast_overflow+0x7c>
    800017dc:	02813503          	ld	a0,40(sp)
    800017e0:	00157513          	andi	a0,a0,1
    800017e4:	02051663          	bnez	a0,80001810 <__ubsan_handle_float_cast_overflow+0xe4>
    800017e8:	0b80006f          	j	800018a0 <__ubsan_handle_float_cast_overflow+0x174>
    800017ec:	00100513          	li	a0,1
    800017f0:	02a13423          	sd	a0,40(sp)
    800017f4:	fe9ff06f          	j	800017dc <__ubsan_handle_float_cast_overflow+0xb0>
    800017f8:	04813503          	ld	a0,72(sp)
    800017fc:	00154503          	lbu	a0,1(a0)
    80001800:	f0150513          	addi	a0,a0,-255
    80001804:	00153513          	seqz	a0,a0
    80001808:	02a13423          	sd	a0,40(sp)
    8000180c:	fd1ff06f          	j	800017dc <__ubsan_handle_float_cast_overflow+0xb0>
    80001810:	03813503          	ld	a0,56(sp)
    80001814:	04813583          	ld	a1,72(sp)
    80001818:	04013603          	ld	a2,64(sp)
    8000181c:	18b13423          	sd	a1,392(sp)
    80001820:	18b13823          	sd	a1,400(sp)
    80001824:	1ac13023          	sd	a2,416(sp)
    80001828:	0005b583          	ld	a1,0(a1)
    8000182c:	18b13c23          	sd	a1,408(sp)
    80001830:	1aa13423          	sd	a0,424(sp)
    80001834:	00100513          	li	a0,1
    80001838:	1aa10823          	sb	a0,432(sp)
    8000183c:	1a013503          	ld	a0,416(sp)
    80001840:	1ca13023          	sd	a0,448(sp)
    80001844:	19813503          	ld	a0,408(sp)
    80001848:	1aa13c23          	sd	a0,440(sp)
    8000184c:	18813503          	ld	a0,392(sp)
    80001850:	00853583          	ld	a1,8(a0)
    80001854:	16810513          	addi	a0,sp,360
    80001858:	00a13c23          	sd	a0,24(sp)
    8000185c:	fffff097          	auipc	ra,0xfffff
    80001860:	988080e7          	jalr	-1656(ra) # 800001e4 <ubsan_rt.TypeDescriptor.getName>
    80001864:	00050613          	mv	a2,a0
    80001868:	01813503          	ld	a0,24(sp)
    8000186c:	02c13023          	sd	a2,32(sp)
    80001870:	00058613          	mv	a2,a1
    80001874:	02013583          	ld	a1,32(sp)
    80001878:	1c013683          	ld	a3,448(sp)
    8000187c:	1cd13823          	sd	a3,464(sp)
    80001880:	1b813683          	ld	a3,440(sp)
    80001884:	1cd13423          	sd	a3,456(sp)
    80001888:	1ec13023          	sd	a2,480(sp)
    8000188c:	1cb13c23          	sd	a1,472(sp)
    80001890:	1a810593          	addi	a1,sp,424
    80001894:	1c810613          	addi	a2,sp,456
    80001898:	00000097          	auipc	ra,0x0
    8000189c:	098080e7          	jalr	152(ra) # 80001930 <debug.panicExtra__anon_2381>
    800018a0:	03813503          	ld	a0,56(sp)
    800018a4:	04813583          	ld	a1,72(sp)
    800018a8:	04013603          	ld	a2,64(sp)
    800018ac:	1eb13423          	sd	a1,488(sp)
    800018b0:	1eb13823          	sd	a1,496(sp)
    800018b4:	20c13023          	sd	a2,512(sp)
    800018b8:	0105b583          	ld	a1,16(a1)
    800018bc:	1eb13c23          	sd	a1,504(sp)
    800018c0:	20a13423          	sd	a0,520(sp)
    800018c4:	00100513          	li	a0,1
    800018c8:	20a10823          	sb	a0,528(sp)
    800018cc:	20013503          	ld	a0,512(sp)
    800018d0:	22a13023          	sd	a0,544(sp)
    800018d4:	1f813503          	ld	a0,504(sp)
    800018d8:	20a13c23          	sd	a0,536(sp)
    800018dc:	1e813503          	ld	a0,488(sp)
    800018e0:	01853583          	ld	a1,24(a0)
    800018e4:	16810513          	addi	a0,sp,360
    800018e8:	00a13423          	sd	a0,8(sp)
    800018ec:	fffff097          	auipc	ra,0xfffff
    800018f0:	8f8080e7          	jalr	-1800(ra) # 800001e4 <ubsan_rt.TypeDescriptor.getName>
    800018f4:	00050613          	mv	a2,a0
    800018f8:	00813503          	ld	a0,8(sp)
    800018fc:	00c13823          	sd	a2,16(sp)
    80001900:	00058613          	mv	a2,a1
    80001904:	01013583          	ld	a1,16(sp)
    80001908:	22013683          	ld	a3,544(sp)
    8000190c:	22d13823          	sd	a3,560(sp)
    80001910:	21813683          	ld	a3,536(sp)
    80001914:	22d13423          	sd	a3,552(sp)
    80001918:	24c13023          	sd	a2,576(sp)
    8000191c:	22b13c23          	sd	a1,568(sp)
    80001920:	20810593          	addi	a1,sp,520
    80001924:	22810613          	addi	a2,sp,552
    80001928:	00000097          	auipc	ra,0x0
    8000192c:	008080e7          	jalr	8(ra) # 80001930 <debug.panicExtra__anon_2381>

0000000080001930 <debug.panicExtra__anon_2381>:
    80001930:	81010113          	addi	sp,sp,-2032
    80001934:	7e113423          	sd	ra,2024(sp)
    80001938:	80010113          	addi	sp,sp,-2048
    8000193c:	f1010113          	addi	sp,sp,-240
    80001940:	000016b7          	lui	a3,0x1
    80001944:	0906869b          	addiw	a3,a3,144 # 1090 <.Lline_table_start0+0xfe2>
    80001948:	00d106b3          	add	a3,sp,a3
    8000194c:	02d13823          	sd	a3,48(sp)
    80001950:	02c13c23          	sd	a2,56(sp)
    80001954:	04b13023          	sd	a1,64(sp)
    80001958:	04a13423          	sd	a0,72(sp)
    8000195c:	00053503          	ld	a0,0(a0)
    80001960:	04a13823          	sd	a0,80(sp)

0000000080001964 <.Lpcrel_hi38>:
    80001964:	0004b517          	auipc	a0,0x4b
    80001968:	8da50513          	addi	a0,a0,-1830 # 8004c23e <__anon_2639>
    8000196c:	06a13023          	sd	a0,96(sp)
    80001970:	00001537          	lui	a0,0x1
    80001974:	00f5061b          	addiw	a2,a0,15 # 100f <.Lline_table_start0+0xf61>
    80001978:	06910513          	addi	a0,sp,105
    8000197c:	04a13c23          	sd	a0,88(sp)
    80001980:	0aa00593          	li	a1,170
    80001984:	0003d097          	auipc	ra,0x3d
    80001988:	3fc080e7          	jalr	1020(ra) # 8003ed80 <memset>
    8000198c:	00100513          	li	a0,1
    80001990:	06051a63          	bnez	a0,80001a04 <.Lpcrel_hi38+0xa0>
    80001994:	0740006f          	j	80001a08 <.Lpcrel_hi38+0xa4>
    80001998:	04813583          	ld	a1,72(sp)
    8000199c:	05813603          	ld	a2,88(sp)
    800019a0:	00001537          	lui	a0,0x1
    800019a4:	0985051b          	addiw	a0,a0,152 # 1098 <.Lline_table_start0+0xfea>
    800019a8:	00a10533          	add	a0,sp,a0
    800019ac:	000016b7          	lui	a3,0x1
    800019b0:	00004097          	auipc	ra,0x4
    800019b4:	cf8080e7          	jalr	-776(ra) # 800056a8 <Io.Writer.fixed>
    800019b8:	03013683          	ld	a3,48(sp)
    800019bc:	04813503          	ld	a0,72(sp)
    800019c0:	03813603          	ld	a2,56(sp)
    800019c4:	0206b583          	ld	a1,32(a3) # 1020 <.Lline_table_start0+0xf72>
    800019c8:	00b6b023          	sd	a1,0(a3)
    800019cc:	0186b583          	ld	a1,24(a3)
    800019d0:	feb6bc23          	sd	a1,-8(a3)
    800019d4:	0106b583          	ld	a1,16(a3)
    800019d8:	feb6b823          	sd	a1,-16(a3)
    800019dc:	0086b583          	ld	a1,8(a3)
    800019e0:	feb6b423          	sd	a1,-24(a3)
    800019e4:	000015b7          	lui	a1,0x1
    800019e8:	0785859b          	addiw	a1,a1,120 # 1078 <.Lline_table_start0+0xfca>
    800019ec:	00b105b3          	add	a1,sp,a1
    800019f0:	00005097          	auipc	ra,0x5
    800019f4:	0a4080e7          	jalr	164(ra) # 80006a94 <Io.Writer.print__anon_2831>
    800019f8:	03051513          	slli	a0,a0,0x30
    800019fc:	04050a63          	beqz	a0,80001a50 <.Lpcrel_hi38+0xec>
    80001a00:	0740006f          	j	80001a74 <.Lpcrel_hi38+0x110>
    80001a04:	f95ff06f          	j	80001998 <.Lpcrel_hi38+0x34>
    80001a08:	04813503          	ld	a0,72(sp)
    80001a0c:	000015b7          	lui	a1,0x1
    80001a10:	00f5861b          	addiw	a2,a1,15 # 100f <.Lline_table_start0+0xf61>
    80001a14:	00004097          	auipc	ra,0x4
    80001a18:	c64080e7          	jalr	-924(ra) # 80005678 <debug.FullPanic((function 'panicHandler')).outOfBounds>
    80001a1c:	04013683          	ld	a3,64(sp)
    80001a20:	04813503          	ld	a0,72(sp)
    80001a24:	03013583          	ld	a1,48(sp)
    80001a28:	02813603          	ld	a2,40(sp)
    80001a2c:	02013703          	ld	a4,32(sp)
    80001a30:	02c5b423          	sd	a2,40(a1)
    80001a34:	02e5b823          	sd	a4,48(a1)
    80001a38:	04e5b023          	sd	a4,64(a1)
    80001a3c:	02c5bc23          	sd	a2,56(a1)
    80001a40:	0405b603          	ld	a2,64(a1)
    80001a44:	0385b583          	ld	a1,56(a1)
    80001a48:	00004097          	auipc	ra,0x4
    80001a4c:	008080e7          	jalr	8(ra) # 80005a50 <main.panicHandler>
    80001a50:	04813503          	ld	a0,72(sp)
    80001a54:	000015b7          	lui	a1,0x1
    80001a58:	0785859b          	addiw	a1,a1,120 # 1078 <.Lline_table_start0+0xfca>
    80001a5c:	00b105b3          	add	a1,sp,a1
    80001a60:	00004097          	auipc	ra,0x4
    80001a64:	f0c080e7          	jalr	-244(ra) # 8000596c <Io.Writer.buffered>
    80001a68:	02a13423          	sd	a0,40(sp)
    80001a6c:	02b13023          	sd	a1,32(sp)
    80001a70:	fadff06f          	j	80001a1c <.Lpcrel_hi38+0xb8>
    80001a74:	000015b7          	lui	a1,0x1
    80001a78:	06910513          	addi	a0,sp,105
    80001a7c:	00b50533          	add	a0,a0,a1
    80001a80:	00a13c23          	sd	a0,24(sp)
    80001a84:	00100513          	li	a0,1
    80001a88:	02051e63          	bnez	a0,80001ac4 <.Lpcrel_hi40+0x10>
    80001a8c:	03c0006f          	j	80001ac8 <.Lpcrel_hi40+0x14>
    80001a90:	01813503          	ld	a0,24(sp)
    80001a94:	00f50593          	addi	a1,a0,15
    80001a98:	00b13823          	sd	a1,16(sp)

0000000080001a9c <.Lpcrel_hi39>:
    80001a9c:	0004a597          	auipc	a1,0x4a
    80001aa0:	7a258593          	addi	a1,a1,1954 # 8004c23e <__anon_2639>
    80001aa4:	00f58593          	addi	a1,a1,15
    80001aa8:	06b57a63          	bgeu	a0,a1,80001b1c <.Lpcrel_hi41+0x38>
    80001aac:	0040006f          	j	80001ab0 <.Lpcrel_hi39+0x14>
    80001ab0:	01013583          	ld	a1,16(sp)

0000000080001ab4 <.Lpcrel_hi40>:
    80001ab4:	0004a517          	auipc	a0,0x4a
    80001ab8:	78a50513          	addi	a0,a0,1930 # 8004c23e <__anon_2639>
    80001abc:	06b57063          	bgeu	a0,a1,80001b1c <.Lpcrel_hi41+0x38>
    80001ac0:	0600006f          	j	80001b20 <.Lpcrel_hi41+0x3c>
    80001ac4:	fcdff06f          	j	80001a90 <.Lpcrel_hi38+0x12c>
    80001ac8:	04813503          	ld	a0,72(sp)
    80001acc:	000015b7          	lui	a1,0x1
    80001ad0:	00f5861b          	addiw	a2,a1,15 # 100f <.Lline_table_start0+0xf61>
    80001ad4:	00060593          	mv	a1,a2
    80001ad8:	00004097          	auipc	ra,0x4
    80001adc:	ba0080e7          	jalr	-1120(ra) # 80005678 <debug.FullPanic((function 'panicHandler')).outOfBounds>
    80001ae0:	01813503          	ld	a0,24(sp)

0000000080001ae4 <.Lpcrel_hi41>:
    80001ae4:	0004a597          	auipc	a1,0x4a
    80001ae8:	75a58593          	addi	a1,a1,1882 # 8004c23e <__anon_2639>
    80001aec:	00f00613          	li	a2,15
    80001af0:	0003d097          	auipc	ra,0x3d
    80001af4:	098080e7          	jalr	152(ra) # 8003eb88 <memcpy>
    80001af8:	04813583          	ld	a1,72(sp)
    80001afc:	05013503          	ld	a0,80(sp)
    80001b00:	00a5b023          	sd	a0,0(a1)
    80001b04:	06910593          	addi	a1,sp,105
    80001b08:	00001537          	lui	a0,0x1
    80001b0c:	00f5051b          	addiw	a0,a0,15 # 100f <.Lline_table_start0+0xf61>
    80001b10:	02b13423          	sd	a1,40(sp)
    80001b14:	02a13023          	sd	a0,32(sp)
    80001b18:	f05ff06f          	j	80001a1c <.Lpcrel_hi38+0xb8>
    80001b1c:	fc5ff06f          	j	80001ae0 <.Lpcrel_hi40+0x2c>
    80001b20:	04813503          	ld	a0,72(sp)
    80001b24:	00004097          	auipc	ra,0x4
    80001b28:	f04080e7          	jalr	-252(ra) # 80005a28 <debug.FullPanic((function 'panicHandler')).memcpyAlias>

0000000080001b2c <__ubsan_handle_float_cast_overflow_abort>:
    80001b2c:	ff010113          	addi	sp,sp,-16
    80001b30:	00a13023          	sd	a0,0(sp)
    80001b34:	00b13423          	sd	a1,8(sp)
    80001b38:	00000097          	auipc	ra,0x0
    80001b3c:	bf4080e7          	jalr	-1036(ra) # 8000172c <__ubsan_handle_float_cast_overflow>

0000000080001b40 <__ubsan_handle_invalid_builtin>:
    80001b40:	eb010113          	addi	sp,sp,-336
    80001b44:	14113423          	sd	ra,328(sp)
    80001b48:	00a13423          	sd	a0,8(sp)
    80001b4c:	02000593          	li	a1,32
    80001b50:	12b13023          	sd	a1,288(sp)
    80001b54:	01010593          	addi	a1,sp,16
    80001b58:	10b13c23          	sd	a1,280(sp)
    80001b5c:	00000593          	li	a1,0
    80001b60:	10b13823          	sd	a1,272(sp)
    80001b64:	12113423          	sd	ra,296(sp)
    80001b68:	00100593          	li	a1,1
    80001b6c:	12b10823          	sb	a1,304(sp)
    80001b70:	01054503          	lbu	a0,16(a0)
    80001b74:	00a13023          	sd	a0,0(sp)
    80001b78:	00000097          	auipc	ra,0x0
    80001b7c:	04c080e7          	jalr	76(ra) # 80001bc4 <__zig_is_named_enum_value_ubsan_rt.InvalidBuiltinData__enum_1726>
    80001b80:	00157513          	andi	a0,a0,1
    80001b84:	02051863          	bnez	a0,80001bb4 <__ubsan_handle_invalid_builtin+0x74>
    80001b88:	0300006f          	j	80001bb8 <__ubsan_handle_invalid_builtin+0x78>
    80001b8c:	00013503          	ld	a0,0(sp)
    80001b90:	00000097          	auipc	ra,0x0
    80001b94:	07c080e7          	jalr	124(ra) # 80001c0c <__zig_tag_name_ubsan_rt.InvalidBuiltinData__enum_1726>
    80001b98:	14b13023          	sd	a1,320(sp)
    80001b9c:	12a13c23          	sd	a0,312(sp)
    80001ba0:	11010513          	addi	a0,sp,272
    80001ba4:	12810593          	addi	a1,sp,296
    80001ba8:	13810613          	addi	a2,sp,312
    80001bac:	00000097          	auipc	ra,0x0
    80001bb0:	094080e7          	jalr	148(ra) # 80001c40 <debug.panicExtra__anon_2397>
    80001bb4:	fd9ff06f          	j	80001b8c <__ubsan_handle_invalid_builtin+0x4c>
    80001bb8:	11010513          	addi	a0,sp,272
    80001bbc:	00000097          	auipc	ra,0x0
    80001bc0:	028080e7          	jalr	40(ra) # 80001be4 <debug.FullPanic((function 'panicHandler')).invalidEnumValue>

0000000080001bc4 <__zig_is_named_enum_value_ubsan_rt.InvalidBuiltinData__enum_1726>:
    80001bc4:	0ff57593          	zext.b	a1,a0
    80001bc8:	00100513          	li	a0,1
    80001bcc:	00b56863          	bltu	a0,a1,80001bdc <__zig_is_named_enum_value_ubsan_rt.InvalidBuiltinData__enum_1726+0x18>
    80001bd0:	0040006f          	j	80001bd4 <__zig_is_named_enum_value_ubsan_rt.InvalidBuiltinData__enum_1726+0x10>
    80001bd4:	00100513          	li	a0,1
    80001bd8:	00008067          	ret
    80001bdc:	00000513          	li	a0,0
    80001be0:	00008067          	ret

0000000080001be4 <debug.FullPanic((function 'panicHandler')).invalidEnumValue>:
    80001be4:	ff010113          	addi	sp,sp,-16
    80001be8:	00113023          	sd	ra,0(sp)
    80001bec:	00100593          	li	a1,1
    80001bf0:	00b10423          	sb	a1,8(sp)

0000000080001bf4 <.Lpcrel_hi42>:
    80001bf4:	0004a597          	auipc	a1,0x4a
    80001bf8:	5ec58593          	addi	a1,a1,1516 # 8004c1e0 <__anon_2835>
    80001bfc:	01200613          	li	a2,18
    80001c00:	00010693          	mv	a3,sp
    80001c04:	00004097          	auipc	ra,0x4
    80001c08:	e4c080e7          	jalr	-436(ra) # 80005a50 <main.panicHandler>

0000000080001c0c <__zig_tag_name_ubsan_rt.InvalidBuiltinData__enum_1726>:
    80001c0c:	00050593          	mv	a1,a0
    80001c10:	0ff5f513          	zext.b	a0,a1
    80001c14:	00050663          	beqz	a0,80001c20 <.Lpcrel_hi43>
    80001c18:	0040006f          	j	80001c1c <__zig_tag_name_ubsan_rt.InvalidBuiltinData__enum_1726+0x10>
    80001c1c:	0140006f          	j	80001c30 <.Lpcrel_hi44>

0000000080001c20 <.Lpcrel_hi43>:
    80001c20:	0004a517          	auipc	a0,0x4a
    80001c24:	3bc50513          	addi	a0,a0,956 # 8004bfdc <__anon_2932+0x34>
    80001c28:	00300593          	li	a1,3
    80001c2c:	00008067          	ret

0000000080001c30 <.Lpcrel_hi44>:
    80001c30:	0004a517          	auipc	a0,0x4a
    80001c34:	6cc50513          	addi	a0,a0,1740 # 8004c2fc <__anon_8652+0x1a>
    80001c38:	00300593          	li	a1,3
    80001c3c:	00008067          	ret

0000000080001c40 <debug.panicExtra__anon_2397>:
    80001c40:	81010113          	addi	sp,sp,-2032
    80001c44:	7e113423          	sd	ra,2024(sp)
    80001c48:	80010113          	addi	sp,sp,-2048
    80001c4c:	f1010113          	addi	sp,sp,-240
    80001c50:	000016b7          	lui	a3,0x1
    80001c54:	0906869b          	addiw	a3,a3,144 # 1090 <.Lline_table_start0+0xfe2>
    80001c58:	00d106b3          	add	a3,sp,a3
    80001c5c:	02d13823          	sd	a3,48(sp)
    80001c60:	02c13c23          	sd	a2,56(sp)
    80001c64:	04b13023          	sd	a1,64(sp)
    80001c68:	04a13423          	sd	a0,72(sp)
    80001c6c:	00053503          	ld	a0,0(a0)
    80001c70:	04a13823          	sd	a0,80(sp)

0000000080001c74 <.Lpcrel_hi45>:
    80001c74:	0004a517          	auipc	a0,0x4a
    80001c78:	5ca50513          	addi	a0,a0,1482 # 8004c23e <__anon_2639>
    80001c7c:	06a13023          	sd	a0,96(sp)
    80001c80:	00001537          	lui	a0,0x1
    80001c84:	00f5061b          	addiw	a2,a0,15 # 100f <.Lline_table_start0+0xf61>
    80001c88:	06910513          	addi	a0,sp,105
    80001c8c:	04a13c23          	sd	a0,88(sp)
    80001c90:	0aa00593          	li	a1,170
    80001c94:	0003d097          	auipc	ra,0x3d
    80001c98:	0ec080e7          	jalr	236(ra) # 8003ed80 <memset>
    80001c9c:	00100513          	li	a0,1
    80001ca0:	06051a63          	bnez	a0,80001d14 <.Lpcrel_hi45+0xa0>
    80001ca4:	0740006f          	j	80001d18 <.Lpcrel_hi45+0xa4>
    80001ca8:	04813583          	ld	a1,72(sp)
    80001cac:	05813603          	ld	a2,88(sp)
    80001cb0:	00001537          	lui	a0,0x1
    80001cb4:	0985051b          	addiw	a0,a0,152 # 1098 <.Lline_table_start0+0xfea>
    80001cb8:	00a10533          	add	a0,sp,a0
    80001cbc:	000016b7          	lui	a3,0x1
    80001cc0:	00004097          	auipc	ra,0x4
    80001cc4:	9e8080e7          	jalr	-1560(ra) # 800056a8 <Io.Writer.fixed>
    80001cc8:	03013683          	ld	a3,48(sp)
    80001ccc:	04813503          	ld	a0,72(sp)
    80001cd0:	03813603          	ld	a2,56(sp)
    80001cd4:	0206b583          	ld	a1,32(a3) # 1020 <.Lline_table_start0+0xf72>
    80001cd8:	00b6b023          	sd	a1,0(a3)
    80001cdc:	0186b583          	ld	a1,24(a3)
    80001ce0:	feb6bc23          	sd	a1,-8(a3)
    80001ce4:	0106b583          	ld	a1,16(a3)
    80001ce8:	feb6b823          	sd	a1,-16(a3)
    80001cec:	0086b583          	ld	a1,8(a3)
    80001cf0:	feb6b423          	sd	a1,-24(a3)
    80001cf4:	000015b7          	lui	a1,0x1
    80001cf8:	0785859b          	addiw	a1,a1,120 # 1078 <.Lline_table_start0+0xfca>
    80001cfc:	00b105b3          	add	a1,sp,a1
    80001d00:	00005097          	auipc	ra,0x5
    80001d04:	ecc080e7          	jalr	-308(ra) # 80006bcc <Io.Writer.print__anon_2840>
    80001d08:	03051513          	slli	a0,a0,0x30
    80001d0c:	04050a63          	beqz	a0,80001d60 <.Lpcrel_hi45+0xec>
    80001d10:	0740006f          	j	80001d84 <.Lpcrel_hi45+0x110>
    80001d14:	f95ff06f          	j	80001ca8 <.Lpcrel_hi45+0x34>
    80001d18:	04813503          	ld	a0,72(sp)
    80001d1c:	000015b7          	lui	a1,0x1
    80001d20:	00f5861b          	addiw	a2,a1,15 # 100f <.Lline_table_start0+0xf61>
    80001d24:	00004097          	auipc	ra,0x4
    80001d28:	954080e7          	jalr	-1708(ra) # 80005678 <debug.FullPanic((function 'panicHandler')).outOfBounds>
    80001d2c:	04013683          	ld	a3,64(sp)
    80001d30:	04813503          	ld	a0,72(sp)
    80001d34:	03013583          	ld	a1,48(sp)
    80001d38:	02813603          	ld	a2,40(sp)
    80001d3c:	02013703          	ld	a4,32(sp)
    80001d40:	02c5b423          	sd	a2,40(a1)
    80001d44:	02e5b823          	sd	a4,48(a1)
    80001d48:	04e5b023          	sd	a4,64(a1)
    80001d4c:	02c5bc23          	sd	a2,56(a1)
    80001d50:	0405b603          	ld	a2,64(a1)
    80001d54:	0385b583          	ld	a1,56(a1)
    80001d58:	00004097          	auipc	ra,0x4
    80001d5c:	cf8080e7          	jalr	-776(ra) # 80005a50 <main.panicHandler>
    80001d60:	04813503          	ld	a0,72(sp)
    80001d64:	000015b7          	lui	a1,0x1
    80001d68:	0785859b          	addiw	a1,a1,120 # 1078 <.Lline_table_start0+0xfca>
    80001d6c:	00b105b3          	add	a1,sp,a1
    80001d70:	00004097          	auipc	ra,0x4
    80001d74:	bfc080e7          	jalr	-1028(ra) # 8000596c <Io.Writer.buffered>
    80001d78:	02a13423          	sd	a0,40(sp)
    80001d7c:	02b13023          	sd	a1,32(sp)
    80001d80:	fadff06f          	j	80001d2c <.Lpcrel_hi45+0xb8>
    80001d84:	000015b7          	lui	a1,0x1
    80001d88:	06910513          	addi	a0,sp,105
    80001d8c:	00b50533          	add	a0,a0,a1
    80001d90:	00a13c23          	sd	a0,24(sp)
    80001d94:	00100513          	li	a0,1
    80001d98:	02051e63          	bnez	a0,80001dd4 <.Lpcrel_hi47+0x10>
    80001d9c:	03c0006f          	j	80001dd8 <.Lpcrel_hi47+0x14>
    80001da0:	01813503          	ld	a0,24(sp)
    80001da4:	00f50593          	addi	a1,a0,15
    80001da8:	00b13823          	sd	a1,16(sp)

0000000080001dac <.Lpcrel_hi46>:
    80001dac:	0004a597          	auipc	a1,0x4a
    80001db0:	49258593          	addi	a1,a1,1170 # 8004c23e <__anon_2639>
    80001db4:	00f58593          	addi	a1,a1,15
    80001db8:	06b57a63          	bgeu	a0,a1,80001e2c <.Lpcrel_hi48+0x38>
    80001dbc:	0040006f          	j	80001dc0 <.Lpcrel_hi46+0x14>
    80001dc0:	01013583          	ld	a1,16(sp)

0000000080001dc4 <.Lpcrel_hi47>:
    80001dc4:	0004a517          	auipc	a0,0x4a
    80001dc8:	47a50513          	addi	a0,a0,1146 # 8004c23e <__anon_2639>
    80001dcc:	06b57063          	bgeu	a0,a1,80001e2c <.Lpcrel_hi48+0x38>
    80001dd0:	0600006f          	j	80001e30 <.Lpcrel_hi48+0x3c>
    80001dd4:	fcdff06f          	j	80001da0 <.Lpcrel_hi45+0x12c>
    80001dd8:	04813503          	ld	a0,72(sp)
    80001ddc:	000015b7          	lui	a1,0x1
    80001de0:	00f5861b          	addiw	a2,a1,15 # 100f <.Lline_table_start0+0xf61>
    80001de4:	00060593          	mv	a1,a2
    80001de8:	00004097          	auipc	ra,0x4
    80001dec:	890080e7          	jalr	-1904(ra) # 80005678 <debug.FullPanic((function 'panicHandler')).outOfBounds>
    80001df0:	01813503          	ld	a0,24(sp)

0000000080001df4 <.Lpcrel_hi48>:
    80001df4:	0004a597          	auipc	a1,0x4a
    80001df8:	44a58593          	addi	a1,a1,1098 # 8004c23e <__anon_2639>
    80001dfc:	00f00613          	li	a2,15
    80001e00:	0003d097          	auipc	ra,0x3d
    80001e04:	d88080e7          	jalr	-632(ra) # 8003eb88 <memcpy>
    80001e08:	04813583          	ld	a1,72(sp)
    80001e0c:	05013503          	ld	a0,80(sp)
    80001e10:	00a5b023          	sd	a0,0(a1)
    80001e14:	06910593          	addi	a1,sp,105
    80001e18:	00001537          	lui	a0,0x1
    80001e1c:	00f5051b          	addiw	a0,a0,15 # 100f <.Lline_table_start0+0xf61>
    80001e20:	02b13423          	sd	a1,40(sp)
    80001e24:	02a13023          	sd	a0,32(sp)
    80001e28:	f05ff06f          	j	80001d2c <.Lpcrel_hi45+0xb8>
    80001e2c:	fc5ff06f          	j	80001df0 <.Lpcrel_hi47+0x2c>
    80001e30:	04813503          	ld	a0,72(sp)
    80001e34:	00004097          	auipc	ra,0x4
    80001e38:	bf4080e7          	jalr	-1036(ra) # 80005a28 <debug.FullPanic((function 'panicHandler')).memcpyAlias>

0000000080001e3c <__ubsan_handle_invalid_builtin_abort>:
    80001e3c:	ff010113          	addi	sp,sp,-16
    80001e40:	00a13423          	sd	a0,8(sp)
    80001e44:	00000097          	auipc	ra,0x0
    80001e48:	cfc080e7          	jalr	-772(ra) # 80001b40 <__ubsan_handle_invalid_builtin>

0000000080001e4c <__ubsan_handle_load_invalid_value>:
    80001e4c:	e6010113          	addi	sp,sp,-416
    80001e50:	18113c23          	sd	ra,408(sp)
    80001e54:	00a13c23          	sd	a0,24(sp)
    80001e58:	02b13023          	sd	a1,32(sp)
    80001e5c:	02000613          	li	a2,32
    80001e60:	12c13c23          	sd	a2,312(sp)
    80001e64:	02810613          	addi	a2,sp,40
    80001e68:	12c13823          	sd	a2,304(sp)
    80001e6c:	00000613          	li	a2,0
    80001e70:	12c13423          	sd	a2,296(sp)
    80001e74:	14a13023          	sd	a0,320(sp)
    80001e78:	14b13823          	sd	a1,336(sp)
    80001e7c:	01053503          	ld	a0,16(a0)
    80001e80:	14a13423          	sd	a0,328(sp)
    80001e84:	14113c23          	sd	ra,344(sp)
    80001e88:	00100513          	li	a0,1
    80001e8c:	16a10023          	sb	a0,352(sp)
    80001e90:	15013503          	ld	a0,336(sp)
    80001e94:	16a13823          	sd	a0,368(sp)
    80001e98:	14813503          	ld	a0,328(sp)
    80001e9c:	16a13423          	sd	a0,360(sp)
    80001ea0:	14013503          	ld	a0,320(sp)
    80001ea4:	01053583          	ld	a1,16(a0)
    80001ea8:	12810513          	addi	a0,sp,296
    80001eac:	00a13423          	sd	a0,8(sp)
    80001eb0:	ffffe097          	auipc	ra,0xffffe
    80001eb4:	334080e7          	jalr	820(ra) # 800001e4 <ubsan_rt.TypeDescriptor.getName>
    80001eb8:	00050613          	mv	a2,a0
    80001ebc:	00813503          	ld	a0,8(sp)
    80001ec0:	00c13823          	sd	a2,16(sp)
    80001ec4:	00058613          	mv	a2,a1
    80001ec8:	01013583          	ld	a1,16(sp)
    80001ecc:	17013683          	ld	a3,368(sp)
    80001ed0:	18d13023          	sd	a3,384(sp)
    80001ed4:	16813683          	ld	a3,360(sp)
    80001ed8:	16d13c23          	sd	a3,376(sp)
    80001edc:	18c13823          	sd	a2,400(sp)
    80001ee0:	18b13423          	sd	a1,392(sp)
    80001ee4:	15810593          	addi	a1,sp,344
    80001ee8:	17810613          	addi	a2,sp,376
    80001eec:	00000097          	auipc	ra,0x0
    80001ef0:	008080e7          	jalr	8(ra) # 80001ef4 <debug.panicExtra__anon_2407>

0000000080001ef4 <debug.panicExtra__anon_2407>:
    80001ef4:	81010113          	addi	sp,sp,-2032
    80001ef8:	7e113423          	sd	ra,2024(sp)
    80001efc:	80010113          	addi	sp,sp,-2048
    80001f00:	f1010113          	addi	sp,sp,-240
    80001f04:	000016b7          	lui	a3,0x1
    80001f08:	0906869b          	addiw	a3,a3,144 # 1090 <.Lline_table_start0+0xfe2>
    80001f0c:	00d106b3          	add	a3,sp,a3
    80001f10:	02d13823          	sd	a3,48(sp)
    80001f14:	02c13c23          	sd	a2,56(sp)
    80001f18:	04b13023          	sd	a1,64(sp)
    80001f1c:	04a13423          	sd	a0,72(sp)
    80001f20:	00053503          	ld	a0,0(a0)
    80001f24:	04a13823          	sd	a0,80(sp)

0000000080001f28 <.Lpcrel_hi49>:
    80001f28:	0004a517          	auipc	a0,0x4a
    80001f2c:	31650513          	addi	a0,a0,790 # 8004c23e <__anon_2639>
    80001f30:	06a13023          	sd	a0,96(sp)
    80001f34:	00001537          	lui	a0,0x1
    80001f38:	00f5061b          	addiw	a2,a0,15 # 100f <.Lline_table_start0+0xf61>
    80001f3c:	06910513          	addi	a0,sp,105
    80001f40:	04a13c23          	sd	a0,88(sp)
    80001f44:	0aa00593          	li	a1,170
    80001f48:	0003d097          	auipc	ra,0x3d
    80001f4c:	e38080e7          	jalr	-456(ra) # 8003ed80 <memset>
    80001f50:	00100513          	li	a0,1
    80001f54:	06051a63          	bnez	a0,80001fc8 <.Lpcrel_hi49+0xa0>
    80001f58:	0740006f          	j	80001fcc <.Lpcrel_hi49+0xa4>
    80001f5c:	04813583          	ld	a1,72(sp)
    80001f60:	05813603          	ld	a2,88(sp)
    80001f64:	00001537          	lui	a0,0x1
    80001f68:	0985051b          	addiw	a0,a0,152 # 1098 <.Lline_table_start0+0xfea>
    80001f6c:	00a10533          	add	a0,sp,a0
    80001f70:	000016b7          	lui	a3,0x1
    80001f74:	00003097          	auipc	ra,0x3
    80001f78:	734080e7          	jalr	1844(ra) # 800056a8 <Io.Writer.fixed>
    80001f7c:	03013683          	ld	a3,48(sp)
    80001f80:	04813503          	ld	a0,72(sp)
    80001f84:	03813603          	ld	a2,56(sp)
    80001f88:	0206b583          	ld	a1,32(a3) # 1020 <.Lline_table_start0+0xf72>
    80001f8c:	00b6b023          	sd	a1,0(a3)
    80001f90:	0186b583          	ld	a1,24(a3)
    80001f94:	feb6bc23          	sd	a1,-8(a3)
    80001f98:	0106b583          	ld	a1,16(a3)
    80001f9c:	feb6b823          	sd	a1,-16(a3)
    80001fa0:	0086b583          	ld	a1,8(a3)
    80001fa4:	feb6b423          	sd	a1,-24(a3)
    80001fa8:	000015b7          	lui	a1,0x1
    80001fac:	0785859b          	addiw	a1,a1,120 # 1078 <.Lline_table_start0+0xfca>
    80001fb0:	00b105b3          	add	a1,sp,a1
    80001fb4:	00005097          	auipc	ra,0x5
    80001fb8:	d40080e7          	jalr	-704(ra) # 80006cf4 <Io.Writer.print__anon_2844>
    80001fbc:	03051513          	slli	a0,a0,0x30
    80001fc0:	04050a63          	beqz	a0,80002014 <.Lpcrel_hi49+0xec>
    80001fc4:	0740006f          	j	80002038 <.Lpcrel_hi49+0x110>
    80001fc8:	f95ff06f          	j	80001f5c <.Lpcrel_hi49+0x34>
    80001fcc:	04813503          	ld	a0,72(sp)
    80001fd0:	000015b7          	lui	a1,0x1
    80001fd4:	00f5861b          	addiw	a2,a1,15 # 100f <.Lline_table_start0+0xf61>
    80001fd8:	00003097          	auipc	ra,0x3
    80001fdc:	6a0080e7          	jalr	1696(ra) # 80005678 <debug.FullPanic((function 'panicHandler')).outOfBounds>
    80001fe0:	04013683          	ld	a3,64(sp)
    80001fe4:	04813503          	ld	a0,72(sp)
    80001fe8:	03013583          	ld	a1,48(sp)
    80001fec:	02813603          	ld	a2,40(sp)
    80001ff0:	02013703          	ld	a4,32(sp)
    80001ff4:	02c5b423          	sd	a2,40(a1)
    80001ff8:	02e5b823          	sd	a4,48(a1)
    80001ffc:	04e5b023          	sd	a4,64(a1)
    80002000:	02c5bc23          	sd	a2,56(a1)
    80002004:	0405b603          	ld	a2,64(a1)
    80002008:	0385b583          	ld	a1,56(a1)
    8000200c:	00004097          	auipc	ra,0x4
    80002010:	a44080e7          	jalr	-1468(ra) # 80005a50 <main.panicHandler>
    80002014:	04813503          	ld	a0,72(sp)
    80002018:	000015b7          	lui	a1,0x1
    8000201c:	0785859b          	addiw	a1,a1,120 # 1078 <.Lline_table_start0+0xfca>
    80002020:	00b105b3          	add	a1,sp,a1
    80002024:	00004097          	auipc	ra,0x4
    80002028:	948080e7          	jalr	-1720(ra) # 8000596c <Io.Writer.buffered>
    8000202c:	02a13423          	sd	a0,40(sp)
    80002030:	02b13023          	sd	a1,32(sp)
    80002034:	fadff06f          	j	80001fe0 <.Lpcrel_hi49+0xb8>
    80002038:	000015b7          	lui	a1,0x1
    8000203c:	06910513          	addi	a0,sp,105
    80002040:	00b50533          	add	a0,a0,a1
    80002044:	00a13c23          	sd	a0,24(sp)
    80002048:	00100513          	li	a0,1
    8000204c:	02051e63          	bnez	a0,80002088 <.Lpcrel_hi51+0x10>
    80002050:	03c0006f          	j	8000208c <.Lpcrel_hi51+0x14>
    80002054:	01813503          	ld	a0,24(sp)
    80002058:	00f50593          	addi	a1,a0,15
    8000205c:	00b13823          	sd	a1,16(sp)

0000000080002060 <.Lpcrel_hi50>:
    80002060:	0004a597          	auipc	a1,0x4a
    80002064:	1de58593          	addi	a1,a1,478 # 8004c23e <__anon_2639>
    80002068:	00f58593          	addi	a1,a1,15
    8000206c:	06b57a63          	bgeu	a0,a1,800020e0 <.Lpcrel_hi52+0x38>
    80002070:	0040006f          	j	80002074 <.Lpcrel_hi50+0x14>
    80002074:	01013583          	ld	a1,16(sp)

0000000080002078 <.Lpcrel_hi51>:
    80002078:	0004a517          	auipc	a0,0x4a
    8000207c:	1c650513          	addi	a0,a0,454 # 8004c23e <__anon_2639>
    80002080:	06b57063          	bgeu	a0,a1,800020e0 <.Lpcrel_hi52+0x38>
    80002084:	0600006f          	j	800020e4 <.Lpcrel_hi52+0x3c>
    80002088:	fcdff06f          	j	80002054 <.Lpcrel_hi49+0x12c>
    8000208c:	04813503          	ld	a0,72(sp)
    80002090:	000015b7          	lui	a1,0x1
    80002094:	00f5861b          	addiw	a2,a1,15 # 100f <.Lline_table_start0+0xf61>
    80002098:	00060593          	mv	a1,a2
    8000209c:	00003097          	auipc	ra,0x3
    800020a0:	5dc080e7          	jalr	1500(ra) # 80005678 <debug.FullPanic((function 'panicHandler')).outOfBounds>
    800020a4:	01813503          	ld	a0,24(sp)

00000000800020a8 <.Lpcrel_hi52>:
    800020a8:	0004a597          	auipc	a1,0x4a
    800020ac:	19658593          	addi	a1,a1,406 # 8004c23e <__anon_2639>
    800020b0:	00f00613          	li	a2,15
    800020b4:	0003d097          	auipc	ra,0x3d
    800020b8:	ad4080e7          	jalr	-1324(ra) # 8003eb88 <memcpy>
    800020bc:	04813583          	ld	a1,72(sp)
    800020c0:	05013503          	ld	a0,80(sp)
    800020c4:	00a5b023          	sd	a0,0(a1)
    800020c8:	06910593          	addi	a1,sp,105
    800020cc:	00001537          	lui	a0,0x1
    800020d0:	00f5051b          	addiw	a0,a0,15 # 100f <.Lline_table_start0+0xf61>
    800020d4:	02b13423          	sd	a1,40(sp)
    800020d8:	02a13023          	sd	a0,32(sp)
    800020dc:	f05ff06f          	j	80001fe0 <.Lpcrel_hi49+0xb8>
    800020e0:	fc5ff06f          	j	800020a4 <.Lpcrel_hi51+0x2c>
    800020e4:	04813503          	ld	a0,72(sp)
    800020e8:	00004097          	auipc	ra,0x4
    800020ec:	940080e7          	jalr	-1728(ra) # 80005a28 <debug.FullPanic((function 'panicHandler')).memcpyAlias>

00000000800020f0 <__ubsan_handle_load_invalid_value_abort>:
    800020f0:	ff010113          	addi	sp,sp,-16
    800020f4:	00a13023          	sd	a0,0(sp)
    800020f8:	00b13423          	sd	a1,8(sp)
    800020fc:	00000097          	auipc	ra,0x0
    80002100:	d50080e7          	jalr	-688(ra) # 80001e4c <__ubsan_handle_load_invalid_value>

0000000080002104 <__ubsan_handle_negate_overflow>:
    80002104:	e6010113          	addi	sp,sp,-416
    80002108:	18113c23          	sd	ra,408(sp)
    8000210c:	00a13c23          	sd	a0,24(sp)
    80002110:	02b13023          	sd	a1,32(sp)
    80002114:	02000613          	li	a2,32
    80002118:	12c13c23          	sd	a2,312(sp)
    8000211c:	02810613          	addi	a2,sp,40
    80002120:	12c13823          	sd	a2,304(sp)
    80002124:	00000613          	li	a2,0
    80002128:	12c13423          	sd	a2,296(sp)
    8000212c:	14a13023          	sd	a0,320(sp)
    80002130:	14b13823          	sd	a1,336(sp)
    80002134:	01053503          	ld	a0,16(a0)
    80002138:	14a13423          	sd	a0,328(sp)
    8000213c:	14113c23          	sd	ra,344(sp)
    80002140:	00100513          	li	a0,1
    80002144:	16a10023          	sb	a0,352(sp)
    80002148:	15013503          	ld	a0,336(sp)
    8000214c:	16a13823          	sd	a0,368(sp)
    80002150:	14813503          	ld	a0,328(sp)
    80002154:	16a13423          	sd	a0,360(sp)
    80002158:	14013503          	ld	a0,320(sp)
    8000215c:	01053583          	ld	a1,16(a0)
    80002160:	12810513          	addi	a0,sp,296
    80002164:	00a13423          	sd	a0,8(sp)
    80002168:	ffffe097          	auipc	ra,0xffffe
    8000216c:	07c080e7          	jalr	124(ra) # 800001e4 <ubsan_rt.TypeDescriptor.getName>
    80002170:	00050613          	mv	a2,a0
    80002174:	00813503          	ld	a0,8(sp)
    80002178:	00c13823          	sd	a2,16(sp)
    8000217c:	00058613          	mv	a2,a1
    80002180:	01013583          	ld	a1,16(sp)
    80002184:	17013683          	ld	a3,368(sp)
    80002188:	18d13023          	sd	a3,384(sp)
    8000218c:	16813683          	ld	a3,360(sp)
    80002190:	16d13c23          	sd	a3,376(sp)
    80002194:	18c13823          	sd	a2,400(sp)
    80002198:	18b13423          	sd	a1,392(sp)
    8000219c:	15810593          	addi	a1,sp,344
    800021a0:	17810613          	addi	a2,sp,376
    800021a4:	00000097          	auipc	ra,0x0
    800021a8:	008080e7          	jalr	8(ra) # 800021ac <debug.panicExtra__anon_2415>

00000000800021ac <debug.panicExtra__anon_2415>:
    800021ac:	81010113          	addi	sp,sp,-2032
    800021b0:	7e113423          	sd	ra,2024(sp)
    800021b4:	80010113          	addi	sp,sp,-2048
    800021b8:	f1010113          	addi	sp,sp,-240
    800021bc:	000016b7          	lui	a3,0x1
    800021c0:	0906869b          	addiw	a3,a3,144 # 1090 <.Lline_table_start0+0xfe2>
    800021c4:	00d106b3          	add	a3,sp,a3
    800021c8:	02d13823          	sd	a3,48(sp)
    800021cc:	02c13c23          	sd	a2,56(sp)
    800021d0:	04b13023          	sd	a1,64(sp)
    800021d4:	04a13423          	sd	a0,72(sp)
    800021d8:	00053503          	ld	a0,0(a0)
    800021dc:	04a13823          	sd	a0,80(sp)

00000000800021e0 <.Lpcrel_hi53>:
    800021e0:	0004a517          	auipc	a0,0x4a
    800021e4:	05e50513          	addi	a0,a0,94 # 8004c23e <__anon_2639>
    800021e8:	06a13023          	sd	a0,96(sp)
    800021ec:	00001537          	lui	a0,0x1
    800021f0:	00f5061b          	addiw	a2,a0,15 # 100f <.Lline_table_start0+0xf61>
    800021f4:	06910513          	addi	a0,sp,105
    800021f8:	04a13c23          	sd	a0,88(sp)
    800021fc:	0aa00593          	li	a1,170
    80002200:	0003d097          	auipc	ra,0x3d
    80002204:	b80080e7          	jalr	-1152(ra) # 8003ed80 <memset>
    80002208:	00100513          	li	a0,1
    8000220c:	06051a63          	bnez	a0,80002280 <.Lpcrel_hi53+0xa0>
    80002210:	0740006f          	j	80002284 <.Lpcrel_hi53+0xa4>
    80002214:	04813583          	ld	a1,72(sp)
    80002218:	05813603          	ld	a2,88(sp)
    8000221c:	00001537          	lui	a0,0x1
    80002220:	0985051b          	addiw	a0,a0,152 # 1098 <.Lline_table_start0+0xfea>
    80002224:	00a10533          	add	a0,sp,a0
    80002228:	000016b7          	lui	a3,0x1
    8000222c:	00003097          	auipc	ra,0x3
    80002230:	47c080e7          	jalr	1148(ra) # 800056a8 <Io.Writer.fixed>
    80002234:	03013683          	ld	a3,48(sp)
    80002238:	04813503          	ld	a0,72(sp)
    8000223c:	03813603          	ld	a2,56(sp)
    80002240:	0206b583          	ld	a1,32(a3) # 1020 <.Lline_table_start0+0xf72>
    80002244:	00b6b023          	sd	a1,0(a3)
    80002248:	0186b583          	ld	a1,24(a3)
    8000224c:	feb6bc23          	sd	a1,-8(a3)
    80002250:	0106b583          	ld	a1,16(a3)
    80002254:	feb6b823          	sd	a1,-16(a3)
    80002258:	0086b583          	ld	a1,8(a3)
    8000225c:	feb6b423          	sd	a1,-24(a3)
    80002260:	000015b7          	lui	a1,0x1
    80002264:	0785859b          	addiw	a1,a1,120 # 1078 <.Lline_table_start0+0xfca>
    80002268:	00b105b3          	add	a1,sp,a1
    8000226c:	00005097          	auipc	ra,0x5
    80002270:	c0c080e7          	jalr	-1012(ra) # 80006e78 <Io.Writer.print__anon_2846>
    80002274:	03051513          	slli	a0,a0,0x30
    80002278:	04050a63          	beqz	a0,800022cc <.Lpcrel_hi53+0xec>
    8000227c:	0740006f          	j	800022f0 <.Lpcrel_hi53+0x110>
    80002280:	f95ff06f          	j	80002214 <.Lpcrel_hi53+0x34>
    80002284:	04813503          	ld	a0,72(sp)
    80002288:	000015b7          	lui	a1,0x1
    8000228c:	00f5861b          	addiw	a2,a1,15 # 100f <.Lline_table_start0+0xf61>
    80002290:	00003097          	auipc	ra,0x3
    80002294:	3e8080e7          	jalr	1000(ra) # 80005678 <debug.FullPanic((function 'panicHandler')).outOfBounds>
    80002298:	04013683          	ld	a3,64(sp)
    8000229c:	04813503          	ld	a0,72(sp)
    800022a0:	03013583          	ld	a1,48(sp)
    800022a4:	02813603          	ld	a2,40(sp)
    800022a8:	02013703          	ld	a4,32(sp)
    800022ac:	02c5b423          	sd	a2,40(a1)
    800022b0:	02e5b823          	sd	a4,48(a1)
    800022b4:	04e5b023          	sd	a4,64(a1)
    800022b8:	02c5bc23          	sd	a2,56(a1)
    800022bc:	0405b603          	ld	a2,64(a1)
    800022c0:	0385b583          	ld	a1,56(a1)
    800022c4:	00003097          	auipc	ra,0x3
    800022c8:	78c080e7          	jalr	1932(ra) # 80005a50 <main.panicHandler>
    800022cc:	04813503          	ld	a0,72(sp)
    800022d0:	000015b7          	lui	a1,0x1
    800022d4:	0785859b          	addiw	a1,a1,120 # 1078 <.Lline_table_start0+0xfca>
    800022d8:	00b105b3          	add	a1,sp,a1
    800022dc:	00003097          	auipc	ra,0x3
    800022e0:	690080e7          	jalr	1680(ra) # 8000596c <Io.Writer.buffered>
    800022e4:	02a13423          	sd	a0,40(sp)
    800022e8:	02b13023          	sd	a1,32(sp)
    800022ec:	fadff06f          	j	80002298 <.Lpcrel_hi53+0xb8>
    800022f0:	000015b7          	lui	a1,0x1
    800022f4:	06910513          	addi	a0,sp,105
    800022f8:	00b50533          	add	a0,a0,a1
    800022fc:	00a13c23          	sd	a0,24(sp)
    80002300:	00100513          	li	a0,1
    80002304:	02051e63          	bnez	a0,80002340 <.Lpcrel_hi55+0x10>
    80002308:	03c0006f          	j	80002344 <.Lpcrel_hi55+0x14>
    8000230c:	01813503          	ld	a0,24(sp)
    80002310:	00f50593          	addi	a1,a0,15
    80002314:	00b13823          	sd	a1,16(sp)

0000000080002318 <.Lpcrel_hi54>:
    80002318:	0004a597          	auipc	a1,0x4a
    8000231c:	f2658593          	addi	a1,a1,-218 # 8004c23e <__anon_2639>
    80002320:	00f58593          	addi	a1,a1,15
    80002324:	06b57a63          	bgeu	a0,a1,80002398 <.Lpcrel_hi56+0x38>
    80002328:	0040006f          	j	8000232c <.Lpcrel_hi54+0x14>
    8000232c:	01013583          	ld	a1,16(sp)

0000000080002330 <.Lpcrel_hi55>:
    80002330:	0004a517          	auipc	a0,0x4a
    80002334:	f0e50513          	addi	a0,a0,-242 # 8004c23e <__anon_2639>
    80002338:	06b57063          	bgeu	a0,a1,80002398 <.Lpcrel_hi56+0x38>
    8000233c:	0600006f          	j	8000239c <.Lpcrel_hi56+0x3c>
    80002340:	fcdff06f          	j	8000230c <.Lpcrel_hi53+0x12c>
    80002344:	04813503          	ld	a0,72(sp)
    80002348:	000015b7          	lui	a1,0x1
    8000234c:	00f5861b          	addiw	a2,a1,15 # 100f <.Lline_table_start0+0xf61>
    80002350:	00060593          	mv	a1,a2
    80002354:	00003097          	auipc	ra,0x3
    80002358:	324080e7          	jalr	804(ra) # 80005678 <debug.FullPanic((function 'panicHandler')).outOfBounds>
    8000235c:	01813503          	ld	a0,24(sp)

0000000080002360 <.Lpcrel_hi56>:
    80002360:	0004a597          	auipc	a1,0x4a
    80002364:	ede58593          	addi	a1,a1,-290 # 8004c23e <__anon_2639>
    80002368:	00f00613          	li	a2,15
    8000236c:	0003d097          	auipc	ra,0x3d
    80002370:	81c080e7          	jalr	-2020(ra) # 8003eb88 <memcpy>
    80002374:	04813583          	ld	a1,72(sp)
    80002378:	05013503          	ld	a0,80(sp)
    8000237c:	00a5b023          	sd	a0,0(a1)
    80002380:	06910593          	addi	a1,sp,105
    80002384:	00001537          	lui	a0,0x1
    80002388:	00f5051b          	addiw	a0,a0,15 # 100f <.Lline_table_start0+0xf61>
    8000238c:	02b13423          	sd	a1,40(sp)
    80002390:	02a13023          	sd	a0,32(sp)
    80002394:	f05ff06f          	j	80002298 <.Lpcrel_hi53+0xb8>
    80002398:	fc5ff06f          	j	8000235c <.Lpcrel_hi55+0x2c>
    8000239c:	04813503          	ld	a0,72(sp)
    800023a0:	00003097          	auipc	ra,0x3
    800023a4:	688080e7          	jalr	1672(ra) # 80005a28 <debug.FullPanic((function 'panicHandler')).memcpyAlias>

00000000800023a8 <__ubsan_handle_negate_overflow_abort>:
    800023a8:	ff010113          	addi	sp,sp,-16
    800023ac:	00a13023          	sd	a0,0(sp)
    800023b0:	00b13423          	sd	a1,8(sp)
    800023b4:	00000097          	auipc	ra,0x0
    800023b8:	d50080e7          	jalr	-688(ra) # 80002104 <__ubsan_handle_negate_overflow>

00000000800023bc <__ubsan_handle_nonnull_arg>:
    800023bc:	ec010113          	addi	sp,sp,-320
    800023c0:	00a13423          	sd	a0,8(sp)
    800023c4:	02000593          	li	a1,32
    800023c8:	12b13023          	sd	a1,288(sp)
    800023cc:	01010593          	addi	a1,sp,16
    800023d0:	10b13c23          	sd	a1,280(sp)
    800023d4:	00000593          	li	a1,0
    800023d8:	10b13823          	sd	a1,272(sp)
    800023dc:	12113423          	sd	ra,296(sp)
    800023e0:	00100593          	li	a1,1
    800023e4:	12b10823          	sb	a1,304(sp)
    800023e8:	02052503          	lw	a0,32(a0)
    800023ec:	12a12e23          	sw	a0,316(sp)
    800023f0:	11010513          	addi	a0,sp,272
    800023f4:	12810593          	addi	a1,sp,296
    800023f8:	13c10613          	addi	a2,sp,316
    800023fc:	00000097          	auipc	ra,0x0
    80002400:	008080e7          	jalr	8(ra) # 80002404 <debug.panicExtra__anon_2426>

0000000080002404 <debug.panicExtra__anon_2426>:
    80002404:	81010113          	addi	sp,sp,-2032
    80002408:	7e113423          	sd	ra,2024(sp)
    8000240c:	80010113          	addi	sp,sp,-2048
    80002410:	f1010113          	addi	sp,sp,-240
    80002414:	000016b7          	lui	a3,0x1
    80002418:	0906869b          	addiw	a3,a3,144 # 1090 <.Lline_table_start0+0xfe2>
    8000241c:	00d106b3          	add	a3,sp,a3
    80002420:	02d13823          	sd	a3,48(sp)
    80002424:	02c13c23          	sd	a2,56(sp)
    80002428:	04b13023          	sd	a1,64(sp)
    8000242c:	04a13423          	sd	a0,72(sp)
    80002430:	00053503          	ld	a0,0(a0)
    80002434:	04a13823          	sd	a0,80(sp)

0000000080002438 <.Lpcrel_hi57>:
    80002438:	0004a517          	auipc	a0,0x4a
    8000243c:	e0650513          	addi	a0,a0,-506 # 8004c23e <__anon_2639>
    80002440:	06a13023          	sd	a0,96(sp)
    80002444:	00001537          	lui	a0,0x1
    80002448:	00f5061b          	addiw	a2,a0,15 # 100f <.Lline_table_start0+0xf61>
    8000244c:	06910513          	addi	a0,sp,105
    80002450:	04a13c23          	sd	a0,88(sp)
    80002454:	0aa00593          	li	a1,170
    80002458:	0003d097          	auipc	ra,0x3d
    8000245c:	928080e7          	jalr	-1752(ra) # 8003ed80 <memset>
    80002460:	00100513          	li	a0,1
    80002464:	06051a63          	bnez	a0,800024d8 <.Lpcrel_hi57+0xa0>
    80002468:	0740006f          	j	800024dc <.Lpcrel_hi57+0xa4>
    8000246c:	04813583          	ld	a1,72(sp)
    80002470:	05813603          	ld	a2,88(sp)
    80002474:	00001537          	lui	a0,0x1
    80002478:	0985051b          	addiw	a0,a0,152 # 1098 <.Lline_table_start0+0xfea>
    8000247c:	00a10533          	add	a0,sp,a0
    80002480:	000016b7          	lui	a3,0x1
    80002484:	00003097          	auipc	ra,0x3
    80002488:	224080e7          	jalr	548(ra) # 800056a8 <Io.Writer.fixed>
    8000248c:	03013683          	ld	a3,48(sp)
    80002490:	04813503          	ld	a0,72(sp)
    80002494:	03813603          	ld	a2,56(sp)
    80002498:	0206b583          	ld	a1,32(a3) # 1020 <.Lline_table_start0+0xf72>
    8000249c:	00b6b023          	sd	a1,0(a3)
    800024a0:	0186b583          	ld	a1,24(a3)
    800024a4:	feb6bc23          	sd	a1,-8(a3)
    800024a8:	0106b583          	ld	a1,16(a3)
    800024ac:	feb6b823          	sd	a1,-16(a3)
    800024b0:	0086b583          	ld	a1,8(a3)
    800024b4:	feb6b423          	sd	a1,-24(a3)
    800024b8:	000015b7          	lui	a1,0x1
    800024bc:	0785859b          	addiw	a1,a1,120 # 1078 <.Lline_table_start0+0xfca>
    800024c0:	00b105b3          	add	a1,sp,a1
    800024c4:	00005097          	auipc	ra,0x5
    800024c8:	b38080e7          	jalr	-1224(ra) # 80006ffc <Io.Writer.print__anon_2848>
    800024cc:	03051513          	slli	a0,a0,0x30
    800024d0:	04050a63          	beqz	a0,80002524 <.Lpcrel_hi57+0xec>
    800024d4:	0740006f          	j	80002548 <.Lpcrel_hi57+0x110>
    800024d8:	f95ff06f          	j	8000246c <.Lpcrel_hi57+0x34>
    800024dc:	04813503          	ld	a0,72(sp)
    800024e0:	000015b7          	lui	a1,0x1
    800024e4:	00f5861b          	addiw	a2,a1,15 # 100f <.Lline_table_start0+0xf61>
    800024e8:	00003097          	auipc	ra,0x3
    800024ec:	190080e7          	jalr	400(ra) # 80005678 <debug.FullPanic((function 'panicHandler')).outOfBounds>
    800024f0:	04013683          	ld	a3,64(sp)
    800024f4:	04813503          	ld	a0,72(sp)
    800024f8:	03013583          	ld	a1,48(sp)
    800024fc:	02813603          	ld	a2,40(sp)
    80002500:	02013703          	ld	a4,32(sp)
    80002504:	02c5b423          	sd	a2,40(a1)
    80002508:	02e5b823          	sd	a4,48(a1)
    8000250c:	04e5b023          	sd	a4,64(a1)
    80002510:	02c5bc23          	sd	a2,56(a1)
    80002514:	0405b603          	ld	a2,64(a1)
    80002518:	0385b583          	ld	a1,56(a1)
    8000251c:	00003097          	auipc	ra,0x3
    80002520:	534080e7          	jalr	1332(ra) # 80005a50 <main.panicHandler>
    80002524:	04813503          	ld	a0,72(sp)
    80002528:	000015b7          	lui	a1,0x1
    8000252c:	0785859b          	addiw	a1,a1,120 # 1078 <.Lline_table_start0+0xfca>
    80002530:	00b105b3          	add	a1,sp,a1
    80002534:	00003097          	auipc	ra,0x3
    80002538:	438080e7          	jalr	1080(ra) # 8000596c <Io.Writer.buffered>
    8000253c:	02a13423          	sd	a0,40(sp)
    80002540:	02b13023          	sd	a1,32(sp)
    80002544:	fadff06f          	j	800024f0 <.Lpcrel_hi57+0xb8>
    80002548:	000015b7          	lui	a1,0x1
    8000254c:	06910513          	addi	a0,sp,105
    80002550:	00b50533          	add	a0,a0,a1
    80002554:	00a13c23          	sd	a0,24(sp)
    80002558:	00100513          	li	a0,1
    8000255c:	02051e63          	bnez	a0,80002598 <.Lpcrel_hi59+0x10>
    80002560:	03c0006f          	j	8000259c <.Lpcrel_hi59+0x14>
    80002564:	01813503          	ld	a0,24(sp)
    80002568:	00f50593          	addi	a1,a0,15
    8000256c:	00b13823          	sd	a1,16(sp)

0000000080002570 <.Lpcrel_hi58>:
    80002570:	0004a597          	auipc	a1,0x4a
    80002574:	cce58593          	addi	a1,a1,-818 # 8004c23e <__anon_2639>
    80002578:	00f58593          	addi	a1,a1,15
    8000257c:	06b57a63          	bgeu	a0,a1,800025f0 <.Lpcrel_hi60+0x38>
    80002580:	0040006f          	j	80002584 <.Lpcrel_hi58+0x14>
    80002584:	01013583          	ld	a1,16(sp)

0000000080002588 <.Lpcrel_hi59>:
    80002588:	0004a517          	auipc	a0,0x4a
    8000258c:	cb650513          	addi	a0,a0,-842 # 8004c23e <__anon_2639>
    80002590:	06b57063          	bgeu	a0,a1,800025f0 <.Lpcrel_hi60+0x38>
    80002594:	0600006f          	j	800025f4 <.Lpcrel_hi60+0x3c>
    80002598:	fcdff06f          	j	80002564 <.Lpcrel_hi57+0x12c>
    8000259c:	04813503          	ld	a0,72(sp)
    800025a0:	000015b7          	lui	a1,0x1
    800025a4:	00f5861b          	addiw	a2,a1,15 # 100f <.Lline_table_start0+0xf61>
    800025a8:	00060593          	mv	a1,a2
    800025ac:	00003097          	auipc	ra,0x3
    800025b0:	0cc080e7          	jalr	204(ra) # 80005678 <debug.FullPanic((function 'panicHandler')).outOfBounds>
    800025b4:	01813503          	ld	a0,24(sp)

00000000800025b8 <.Lpcrel_hi60>:
    800025b8:	0004a597          	auipc	a1,0x4a
    800025bc:	c8658593          	addi	a1,a1,-890 # 8004c23e <__anon_2639>
    800025c0:	00f00613          	li	a2,15
    800025c4:	0003c097          	auipc	ra,0x3c
    800025c8:	5c4080e7          	jalr	1476(ra) # 8003eb88 <memcpy>
    800025cc:	04813583          	ld	a1,72(sp)
    800025d0:	05013503          	ld	a0,80(sp)
    800025d4:	00a5b023          	sd	a0,0(a1)
    800025d8:	06910593          	addi	a1,sp,105
    800025dc:	00001537          	lui	a0,0x1
    800025e0:	00f5051b          	addiw	a0,a0,15 # 100f <.Lline_table_start0+0xf61>
    800025e4:	02b13423          	sd	a1,40(sp)
    800025e8:	02a13023          	sd	a0,32(sp)
    800025ec:	f05ff06f          	j	800024f0 <.Lpcrel_hi57+0xb8>
    800025f0:	fc5ff06f          	j	800025b4 <.Lpcrel_hi59+0x2c>
    800025f4:	04813503          	ld	a0,72(sp)
    800025f8:	00003097          	auipc	ra,0x3
    800025fc:	430080e7          	jalr	1072(ra) # 80005a28 <debug.FullPanic((function 'panicHandler')).memcpyAlias>

0000000080002600 <__ubsan_handle_nonnull_arg_abort>:
    80002600:	ff010113          	addi	sp,sp,-16
    80002604:	00a13423          	sd	a0,8(sp)
    80002608:	00000097          	auipc	ra,0x0
    8000260c:	db4080e7          	jalr	-588(ra) # 800023bc <__ubsan_handle_nonnull_arg>

0000000080002610 <__ubsan_handle_nonnull_return_v1>:
    80002610:	ed010113          	addi	sp,sp,-304
    80002614:	00a13023          	sd	a0,0(sp)
    80002618:	02000513          	li	a0,32
    8000261c:	10a13c23          	sd	a0,280(sp)
    80002620:	00810513          	addi	a0,sp,8
    80002624:	10a13823          	sd	a0,272(sp)
    80002628:	00000513          	li	a0,0
    8000262c:	10a13423          	sd	a0,264(sp)
    80002630:	12113023          	sd	ra,288(sp)
    80002634:	00100513          	li	a0,1
    80002638:	12a10423          	sb	a0,296(sp)
    8000263c:	10810513          	addi	a0,sp,264
    80002640:	12010593          	addi	a1,sp,288
    80002644:	00000097          	auipc	ra,0x0
    80002648:	008080e7          	jalr	8(ra) # 8000264c <debug.panicExtra__anon_2431>

000000008000264c <debug.panicExtra__anon_2431>:
    8000264c:	81010113          	addi	sp,sp,-2032
    80002650:	7e113423          	sd	ra,2024(sp)
    80002654:	80010113          	addi	sp,sp,-2048
    80002658:	f2010113          	addi	sp,sp,-224
    8000265c:	00001637          	lui	a2,0x1
    80002660:	0806061b          	addiw	a2,a2,128 # 1080 <.Lline_table_start0+0xfd2>
    80002664:	00c10633          	add	a2,sp,a2
    80002668:	02c13423          	sd	a2,40(sp)
    8000266c:	02b13823          	sd	a1,48(sp)
    80002670:	02a13c23          	sd	a0,56(sp)
    80002674:	00053503          	ld	a0,0(a0)
    80002678:	04a13023          	sd	a0,64(sp)

000000008000267c <.Lpcrel_hi61>:
    8000267c:	0004a517          	auipc	a0,0x4a
    80002680:	bc250513          	addi	a0,a0,-1086 # 8004c23e <__anon_2639>
    80002684:	04a13823          	sd	a0,80(sp)
    80002688:	00001537          	lui	a0,0x1
    8000268c:	00f5061b          	addiw	a2,a0,15 # 100f <.Lline_table_start0+0xf61>
    80002690:	05910513          	addi	a0,sp,89
    80002694:	04a13423          	sd	a0,72(sp)
    80002698:	0aa00593          	li	a1,170
    8000269c:	0003c097          	auipc	ra,0x3c
    800026a0:	6e4080e7          	jalr	1764(ra) # 8003ed80 <memset>
    800026a4:	00100513          	li	a0,1
    800026a8:	06051863          	bnez	a0,80002718 <.Lpcrel_hi61+0x9c>
    800026ac:	0700006f          	j	8000271c <.Lpcrel_hi61+0xa0>
    800026b0:	03813583          	ld	a1,56(sp)
    800026b4:	04813603          	ld	a2,72(sp)
    800026b8:	00001537          	lui	a0,0x1
    800026bc:	0885051b          	addiw	a0,a0,136 # 1088 <.Lline_table_start0+0xfda>
    800026c0:	00a10533          	add	a0,sp,a0
    800026c4:	000016b7          	lui	a3,0x1
    800026c8:	00003097          	auipc	ra,0x3
    800026cc:	fe0080e7          	jalr	-32(ra) # 800056a8 <Io.Writer.fixed>
    800026d0:	02813603          	ld	a2,40(sp)
    800026d4:	03813503          	ld	a0,56(sp)
    800026d8:	02063583          	ld	a1,32(a2)
    800026dc:	00b63023          	sd	a1,0(a2)
    800026e0:	01863583          	ld	a1,24(a2)
    800026e4:	feb63c23          	sd	a1,-8(a2)
    800026e8:	01063583          	ld	a1,16(a2)
    800026ec:	feb63823          	sd	a1,-16(a2)
    800026f0:	00863583          	ld	a1,8(a2)
    800026f4:	feb63423          	sd	a1,-24(a2)
    800026f8:	000015b7          	lui	a1,0x1
    800026fc:	0685859b          	addiw	a1,a1,104 # 1068 <.Lline_table_start0+0xfba>
    80002700:	00b105b3          	add	a1,sp,a1
    80002704:	00005097          	auipc	ra,0x5
    80002708:	a18080e7          	jalr	-1512(ra) # 8000711c <Io.Writer.print__anon_2851>
    8000270c:	03051513          	slli	a0,a0,0x30
    80002710:	04050a63          	beqz	a0,80002764 <.Lpcrel_hi61+0xe8>
    80002714:	0740006f          	j	80002788 <.Lpcrel_hi61+0x10c>
    80002718:	f99ff06f          	j	800026b0 <.Lpcrel_hi61+0x34>
    8000271c:	03813503          	ld	a0,56(sp)
    80002720:	000015b7          	lui	a1,0x1
    80002724:	00f5861b          	addiw	a2,a1,15 # 100f <.Lline_table_start0+0xf61>
    80002728:	00003097          	auipc	ra,0x3
    8000272c:	f50080e7          	jalr	-176(ra) # 80005678 <debug.FullPanic((function 'panicHandler')).outOfBounds>
    80002730:	03013683          	ld	a3,48(sp)
    80002734:	03813503          	ld	a0,56(sp)
    80002738:	02813583          	ld	a1,40(sp)
    8000273c:	02013603          	ld	a2,32(sp)
    80002740:	01813703          	ld	a4,24(sp)
    80002744:	02c5b423          	sd	a2,40(a1)
    80002748:	02e5b823          	sd	a4,48(a1)
    8000274c:	04e5b023          	sd	a4,64(a1)
    80002750:	02c5bc23          	sd	a2,56(a1)
    80002754:	0405b603          	ld	a2,64(a1)
    80002758:	0385b583          	ld	a1,56(a1)
    8000275c:	00003097          	auipc	ra,0x3
    80002760:	2f4080e7          	jalr	756(ra) # 80005a50 <main.panicHandler>
    80002764:	03813503          	ld	a0,56(sp)
    80002768:	000015b7          	lui	a1,0x1
    8000276c:	0685859b          	addiw	a1,a1,104 # 1068 <.Lline_table_start0+0xfba>
    80002770:	00b105b3          	add	a1,sp,a1
    80002774:	00003097          	auipc	ra,0x3
    80002778:	1f8080e7          	jalr	504(ra) # 8000596c <Io.Writer.buffered>
    8000277c:	02a13023          	sd	a0,32(sp)
    80002780:	00b13c23          	sd	a1,24(sp)
    80002784:	fadff06f          	j	80002730 <.Lpcrel_hi61+0xb4>
    80002788:	000015b7          	lui	a1,0x1
    8000278c:	05910513          	addi	a0,sp,89
    80002790:	00b50533          	add	a0,a0,a1
    80002794:	00a13823          	sd	a0,16(sp)
    80002798:	00100513          	li	a0,1
    8000279c:	02051e63          	bnez	a0,800027d8 <.Lpcrel_hi63+0x10>
    800027a0:	03c0006f          	j	800027dc <.Lpcrel_hi63+0x14>
    800027a4:	01013503          	ld	a0,16(sp)
    800027a8:	00f50593          	addi	a1,a0,15
    800027ac:	00b13423          	sd	a1,8(sp)

00000000800027b0 <.Lpcrel_hi62>:
    800027b0:	0004a597          	auipc	a1,0x4a
    800027b4:	a8e58593          	addi	a1,a1,-1394 # 8004c23e <__anon_2639>
    800027b8:	00f58593          	addi	a1,a1,15
    800027bc:	06b57a63          	bgeu	a0,a1,80002830 <.Lpcrel_hi64+0x38>
    800027c0:	0040006f          	j	800027c4 <.Lpcrel_hi62+0x14>
    800027c4:	00813583          	ld	a1,8(sp)

00000000800027c8 <.Lpcrel_hi63>:
    800027c8:	0004a517          	auipc	a0,0x4a
    800027cc:	a7650513          	addi	a0,a0,-1418 # 8004c23e <__anon_2639>
    800027d0:	06b57063          	bgeu	a0,a1,80002830 <.Lpcrel_hi64+0x38>
    800027d4:	0600006f          	j	80002834 <.Lpcrel_hi64+0x3c>
    800027d8:	fcdff06f          	j	800027a4 <.Lpcrel_hi61+0x128>
    800027dc:	03813503          	ld	a0,56(sp)
    800027e0:	000015b7          	lui	a1,0x1
    800027e4:	00f5861b          	addiw	a2,a1,15 # 100f <.Lline_table_start0+0xf61>
    800027e8:	00060593          	mv	a1,a2
    800027ec:	00003097          	auipc	ra,0x3
    800027f0:	e8c080e7          	jalr	-372(ra) # 80005678 <debug.FullPanic((function 'panicHandler')).outOfBounds>
    800027f4:	01013503          	ld	a0,16(sp)

00000000800027f8 <.Lpcrel_hi64>:
    800027f8:	0004a597          	auipc	a1,0x4a
    800027fc:	a4658593          	addi	a1,a1,-1466 # 8004c23e <__anon_2639>
    80002800:	00f00613          	li	a2,15
    80002804:	0003c097          	auipc	ra,0x3c
    80002808:	384080e7          	jalr	900(ra) # 8003eb88 <memcpy>
    8000280c:	03813583          	ld	a1,56(sp)
    80002810:	04013503          	ld	a0,64(sp)
    80002814:	00a5b023          	sd	a0,0(a1)
    80002818:	05910593          	addi	a1,sp,89
    8000281c:	00001537          	lui	a0,0x1
    80002820:	00f5051b          	addiw	a0,a0,15 # 100f <.Lline_table_start0+0xf61>
    80002824:	02b13023          	sd	a1,32(sp)
    80002828:	00a13c23          	sd	a0,24(sp)
    8000282c:	f05ff06f          	j	80002730 <.Lpcrel_hi61+0xb4>
    80002830:	fc5ff06f          	j	800027f4 <.Lpcrel_hi63+0x2c>
    80002834:	03813503          	ld	a0,56(sp)
    80002838:	00003097          	auipc	ra,0x3
    8000283c:	1f0080e7          	jalr	496(ra) # 80005a28 <debug.FullPanic((function 'panicHandler')).memcpyAlias>

0000000080002840 <__ubsan_handle_nonnull_return_v1_abort>:
    80002840:	ff010113          	addi	sp,sp,-16
    80002844:	00a13423          	sd	a0,8(sp)
    80002848:	00000097          	auipc	ra,0x0
    8000284c:	dc8080e7          	jalr	-568(ra) # 80002610 <__ubsan_handle_nonnull_return_v1>

0000000080002850 <__ubsan_handle_out_of_bounds>:
    80002850:	e6010113          	addi	sp,sp,-416
    80002854:	18113c23          	sd	ra,408(sp)
    80002858:	00a13c23          	sd	a0,24(sp)
    8000285c:	02b13023          	sd	a1,32(sp)
    80002860:	02000613          	li	a2,32
    80002864:	12c13c23          	sd	a2,312(sp)
    80002868:	02810613          	addi	a2,sp,40
    8000286c:	12c13823          	sd	a2,304(sp)
    80002870:	00000613          	li	a2,0
    80002874:	12c13423          	sd	a2,296(sp)
    80002878:	14a13023          	sd	a0,320(sp)
    8000287c:	14b13823          	sd	a1,336(sp)
    80002880:	01853503          	ld	a0,24(a0)
    80002884:	14a13423          	sd	a0,328(sp)
    80002888:	14113c23          	sd	ra,344(sp)
    8000288c:	00100513          	li	a0,1
    80002890:	16a10023          	sb	a0,352(sp)
    80002894:	15013503          	ld	a0,336(sp)
    80002898:	16a13823          	sd	a0,368(sp)
    8000289c:	14813503          	ld	a0,328(sp)
    800028a0:	16a13423          	sd	a0,360(sp)
    800028a4:	14013503          	ld	a0,320(sp)
    800028a8:	01053583          	ld	a1,16(a0)
    800028ac:	12810513          	addi	a0,sp,296
    800028b0:	00a13423          	sd	a0,8(sp)
    800028b4:	ffffe097          	auipc	ra,0xffffe
    800028b8:	930080e7          	jalr	-1744(ra) # 800001e4 <ubsan_rt.TypeDescriptor.getName>
    800028bc:	00050613          	mv	a2,a0
    800028c0:	00813503          	ld	a0,8(sp)
    800028c4:	00c13823          	sd	a2,16(sp)
    800028c8:	00058613          	mv	a2,a1
    800028cc:	01013583          	ld	a1,16(sp)
    800028d0:	17013683          	ld	a3,368(sp)
    800028d4:	18d13023          	sd	a3,384(sp)
    800028d8:	16813683          	ld	a3,360(sp)
    800028dc:	16d13c23          	sd	a3,376(sp)
    800028e0:	18c13823          	sd	a2,400(sp)
    800028e4:	18b13423          	sd	a1,392(sp)
    800028e8:	15810593          	addi	a1,sp,344
    800028ec:	17810613          	addi	a2,sp,376
    800028f0:	00000097          	auipc	ra,0x0
    800028f4:	008080e7          	jalr	8(ra) # 800028f8 <debug.panicExtra__anon_2438>

00000000800028f8 <debug.panicExtra__anon_2438>:
    800028f8:	81010113          	addi	sp,sp,-2032
    800028fc:	7e113423          	sd	ra,2024(sp)
    80002900:	80010113          	addi	sp,sp,-2048
    80002904:	f1010113          	addi	sp,sp,-240
    80002908:	000016b7          	lui	a3,0x1
    8000290c:	0906869b          	addiw	a3,a3,144 # 1090 <.Lline_table_start0+0xfe2>
    80002910:	00d106b3          	add	a3,sp,a3
    80002914:	02d13823          	sd	a3,48(sp)
    80002918:	02c13c23          	sd	a2,56(sp)
    8000291c:	04b13023          	sd	a1,64(sp)
    80002920:	04a13423          	sd	a0,72(sp)
    80002924:	00053503          	ld	a0,0(a0)
    80002928:	04a13823          	sd	a0,80(sp)

000000008000292c <.Lpcrel_hi65>:
    8000292c:	0004a517          	auipc	a0,0x4a
    80002930:	91250513          	addi	a0,a0,-1774 # 8004c23e <__anon_2639>
    80002934:	06a13023          	sd	a0,96(sp)
    80002938:	00001537          	lui	a0,0x1
    8000293c:	00f5061b          	addiw	a2,a0,15 # 100f <.Lline_table_start0+0xf61>
    80002940:	06910513          	addi	a0,sp,105
    80002944:	04a13c23          	sd	a0,88(sp)
    80002948:	0aa00593          	li	a1,170
    8000294c:	0003c097          	auipc	ra,0x3c
    80002950:	434080e7          	jalr	1076(ra) # 8003ed80 <memset>
    80002954:	00100513          	li	a0,1
    80002958:	06051a63          	bnez	a0,800029cc <.Lpcrel_hi65+0xa0>
    8000295c:	0740006f          	j	800029d0 <.Lpcrel_hi65+0xa4>
    80002960:	04813583          	ld	a1,72(sp)
    80002964:	05813603          	ld	a2,88(sp)
    80002968:	00001537          	lui	a0,0x1
    8000296c:	0985051b          	addiw	a0,a0,152 # 1098 <.Lline_table_start0+0xfea>
    80002970:	00a10533          	add	a0,sp,a0
    80002974:	000016b7          	lui	a3,0x1
    80002978:	00003097          	auipc	ra,0x3
    8000297c:	d30080e7          	jalr	-720(ra) # 800056a8 <Io.Writer.fixed>
    80002980:	03013683          	ld	a3,48(sp)
    80002984:	04813503          	ld	a0,72(sp)
    80002988:	03813603          	ld	a2,56(sp)
    8000298c:	0206b583          	ld	a1,32(a3) # 1020 <.Lline_table_start0+0xf72>
    80002990:	00b6b023          	sd	a1,0(a3)
    80002994:	0186b583          	ld	a1,24(a3)
    80002998:	feb6bc23          	sd	a1,-8(a3)
    8000299c:	0106b583          	ld	a1,16(a3)
    800029a0:	feb6b823          	sd	a1,-16(a3)
    800029a4:	0086b583          	ld	a1,8(a3)
    800029a8:	feb6b423          	sd	a1,-24(a3)
    800029ac:	000015b7          	lui	a1,0x1
    800029b0:	0785859b          	addiw	a1,a1,120 # 1078 <.Lline_table_start0+0xfca>
    800029b4:	00b105b3          	add	a1,sp,a1
    800029b8:	00004097          	auipc	ra,0x4
    800029bc:	7d8080e7          	jalr	2008(ra) # 80007190 <Io.Writer.print__anon_2853>
    800029c0:	03051513          	slli	a0,a0,0x30
    800029c4:	04050a63          	beqz	a0,80002a18 <.Lpcrel_hi65+0xec>
    800029c8:	0740006f          	j	80002a3c <.Lpcrel_hi65+0x110>
    800029cc:	f95ff06f          	j	80002960 <.Lpcrel_hi65+0x34>
    800029d0:	04813503          	ld	a0,72(sp)
    800029d4:	000015b7          	lui	a1,0x1
    800029d8:	00f5861b          	addiw	a2,a1,15 # 100f <.Lline_table_start0+0xf61>
    800029dc:	00003097          	auipc	ra,0x3
    800029e0:	c9c080e7          	jalr	-868(ra) # 80005678 <debug.FullPanic((function 'panicHandler')).outOfBounds>
    800029e4:	04013683          	ld	a3,64(sp)
    800029e8:	04813503          	ld	a0,72(sp)
    800029ec:	03013583          	ld	a1,48(sp)
    800029f0:	02813603          	ld	a2,40(sp)
    800029f4:	02013703          	ld	a4,32(sp)
    800029f8:	02c5b423          	sd	a2,40(a1)
    800029fc:	02e5b823          	sd	a4,48(a1)
    80002a00:	04e5b023          	sd	a4,64(a1)
    80002a04:	02c5bc23          	sd	a2,56(a1)
    80002a08:	0405b603          	ld	a2,64(a1)
    80002a0c:	0385b583          	ld	a1,56(a1)
    80002a10:	00003097          	auipc	ra,0x3
    80002a14:	040080e7          	jalr	64(ra) # 80005a50 <main.panicHandler>
    80002a18:	04813503          	ld	a0,72(sp)
    80002a1c:	000015b7          	lui	a1,0x1
    80002a20:	0785859b          	addiw	a1,a1,120 # 1078 <.Lline_table_start0+0xfca>
    80002a24:	00b105b3          	add	a1,sp,a1
    80002a28:	00003097          	auipc	ra,0x3
    80002a2c:	f44080e7          	jalr	-188(ra) # 8000596c <Io.Writer.buffered>
    80002a30:	02a13423          	sd	a0,40(sp)
    80002a34:	02b13023          	sd	a1,32(sp)
    80002a38:	fadff06f          	j	800029e4 <.Lpcrel_hi65+0xb8>
    80002a3c:	000015b7          	lui	a1,0x1
    80002a40:	06910513          	addi	a0,sp,105
    80002a44:	00b50533          	add	a0,a0,a1
    80002a48:	00a13c23          	sd	a0,24(sp)
    80002a4c:	00100513          	li	a0,1
    80002a50:	02051e63          	bnez	a0,80002a8c <.Lpcrel_hi67+0x10>
    80002a54:	03c0006f          	j	80002a90 <.Lpcrel_hi67+0x14>
    80002a58:	01813503          	ld	a0,24(sp)
    80002a5c:	00f50593          	addi	a1,a0,15
    80002a60:	00b13823          	sd	a1,16(sp)

0000000080002a64 <.Lpcrel_hi66>:
    80002a64:	00049597          	auipc	a1,0x49
    80002a68:	7da58593          	addi	a1,a1,2010 # 8004c23e <__anon_2639>
    80002a6c:	00f58593          	addi	a1,a1,15
    80002a70:	06b57a63          	bgeu	a0,a1,80002ae4 <.Lpcrel_hi68+0x38>
    80002a74:	0040006f          	j	80002a78 <.Lpcrel_hi66+0x14>
    80002a78:	01013583          	ld	a1,16(sp)

0000000080002a7c <.Lpcrel_hi67>:
    80002a7c:	00049517          	auipc	a0,0x49
    80002a80:	7c250513          	addi	a0,a0,1986 # 8004c23e <__anon_2639>
    80002a84:	06b57063          	bgeu	a0,a1,80002ae4 <.Lpcrel_hi68+0x38>
    80002a88:	0600006f          	j	80002ae8 <.Lpcrel_hi68+0x3c>
    80002a8c:	fcdff06f          	j	80002a58 <.Lpcrel_hi65+0x12c>
    80002a90:	04813503          	ld	a0,72(sp)
    80002a94:	000015b7          	lui	a1,0x1
    80002a98:	00f5861b          	addiw	a2,a1,15 # 100f <.Lline_table_start0+0xf61>
    80002a9c:	00060593          	mv	a1,a2
    80002aa0:	00003097          	auipc	ra,0x3
    80002aa4:	bd8080e7          	jalr	-1064(ra) # 80005678 <debug.FullPanic((function 'panicHandler')).outOfBounds>
    80002aa8:	01813503          	ld	a0,24(sp)

0000000080002aac <.Lpcrel_hi68>:
    80002aac:	00049597          	auipc	a1,0x49
    80002ab0:	79258593          	addi	a1,a1,1938 # 8004c23e <__anon_2639>
    80002ab4:	00f00613          	li	a2,15
    80002ab8:	0003c097          	auipc	ra,0x3c
    80002abc:	0d0080e7          	jalr	208(ra) # 8003eb88 <memcpy>
    80002ac0:	04813583          	ld	a1,72(sp)
    80002ac4:	05013503          	ld	a0,80(sp)
    80002ac8:	00a5b023          	sd	a0,0(a1)
    80002acc:	06910593          	addi	a1,sp,105
    80002ad0:	00001537          	lui	a0,0x1
    80002ad4:	00f5051b          	addiw	a0,a0,15 # 100f <.Lline_table_start0+0xf61>
    80002ad8:	02b13423          	sd	a1,40(sp)
    80002adc:	02a13023          	sd	a0,32(sp)
    80002ae0:	f05ff06f          	j	800029e4 <.Lpcrel_hi65+0xb8>
    80002ae4:	fc5ff06f          	j	80002aa8 <.Lpcrel_hi67+0x2c>
    80002ae8:	04813503          	ld	a0,72(sp)
    80002aec:	00003097          	auipc	ra,0x3
    80002af0:	f3c080e7          	jalr	-196(ra) # 80005a28 <debug.FullPanic((function 'panicHandler')).memcpyAlias>

0000000080002af4 <__ubsan_handle_out_of_bounds_abort>:
    80002af4:	ff010113          	addi	sp,sp,-16
    80002af8:	00a13023          	sd	a0,0(sp)
    80002afc:	00b13423          	sd	a1,8(sp)
    80002b00:	00000097          	auipc	ra,0x0
    80002b04:	d50080e7          	jalr	-688(ra) # 80002850 <__ubsan_handle_out_of_bounds>

0000000080002b08 <__ubsan_handle_pointer_overflow>:
    80002b08:	e0010113          	addi	sp,sp,-512
    80002b0c:	00113423          	sd	ra,8(sp)
    80002b10:	00c13823          	sd	a2,16(sp)
    80002b14:	00b13c23          	sd	a1,24(sp)
    80002b18:	02a13023          	sd	a0,32(sp)
    80002b1c:	02b13423          	sd	a1,40(sp)
    80002b20:	02c13823          	sd	a2,48(sp)
    80002b24:	02000513          	li	a0,32
    80002b28:	14a13423          	sd	a0,328(sp)
    80002b2c:	03810513          	addi	a0,sp,56
    80002b30:	14a13023          	sd	a0,320(sp)
    80002b34:	00000513          	li	a0,0
    80002b38:	12a13c23          	sd	a0,312(sp)
    80002b3c:	00059a63          	bnez	a1,80002b50 <__ubsan_handle_pointer_overflow+0x48>
    80002b40:	0040006f          	j	80002b44 <__ubsan_handle_pointer_overflow+0x3c>
    80002b44:	01013503          	ld	a0,16(sp)
    80002b48:	00050a63          	beqz	a0,80002b5c <__ubsan_handle_pointer_overflow+0x54>
    80002b4c:	0300006f          	j	80002b7c <__ubsan_handle_pointer_overflow+0x74>
    80002b50:	01013503          	ld	a0,16(sp)
    80002b54:	04050a63          	beqz	a0,80002ba8 <__ubsan_handle_pointer_overflow+0xa0>
    80002b58:	07c0006f          	j	80002bd4 <__ubsan_handle_pointer_overflow+0xcc>
    80002b5c:	00813503          	ld	a0,8(sp)
    80002b60:	14a13823          	sd	a0,336(sp)
    80002b64:	00100513          	li	a0,1
    80002b68:	14a10c23          	sb	a0,344(sp)
    80002b6c:	13810513          	addi	a0,sp,312
    80002b70:	15010593          	addi	a1,sp,336
    80002b74:	00000097          	auipc	ra,0x0
    80002b78:	134080e7          	jalr	308(ra) # 80002ca8 <debug.panicExtra__anon_2443>
    80002b7c:	01013503          	ld	a0,16(sp)
    80002b80:	00813583          	ld	a1,8(sp)
    80002b84:	16b13023          	sd	a1,352(sp)
    80002b88:	00100593          	li	a1,1
    80002b8c:	16b10423          	sb	a1,360(sp)
    80002b90:	16a13823          	sd	a0,368(sp)
    80002b94:	13810513          	addi	a0,sp,312
    80002b98:	16010593          	addi	a1,sp,352
    80002b9c:	17010613          	addi	a2,sp,368
    80002ba0:	00000097          	auipc	ra,0x0
    80002ba4:	2fc080e7          	jalr	764(ra) # 80002e9c <debug.panicExtra__anon_2453>
    80002ba8:	01813503          	ld	a0,24(sp)
    80002bac:	00813583          	ld	a1,8(sp)
    80002bb0:	16b13c23          	sd	a1,376(sp)
    80002bb4:	00100593          	li	a1,1
    80002bb8:	18b10023          	sb	a1,384(sp)
    80002bbc:	18a13423          	sd	a0,392(sp)
    80002bc0:	13810513          	addi	a0,sp,312
    80002bc4:	17810593          	addi	a1,sp,376
    80002bc8:	18810613          	addi	a2,sp,392
    80002bcc:	00000097          	auipc	ra,0x0
    80002bd0:	4cc080e7          	jalr	1228(ra) # 80003098 <debug.panicExtra__anon_2461>
    80002bd4:	01013583          	ld	a1,16(sp)
    80002bd8:	01813503          	ld	a0,24(sp)
    80002bdc:	18a13823          	sd	a0,400(sp)
    80002be0:	18b13c23          	sd	a1,408(sp)
    80002be4:	00052513          	slti	a0,a0,0
    80002be8:	00154513          	xori	a0,a0,1
    80002bec:	0005a593          	slti	a1,a1,0
    80002bf0:	0015c593          	xori	a1,a1,1
    80002bf4:	00b51c63          	bne	a0,a1,80002c0c <__ubsan_handle_pointer_overflow+0x104>
    80002bf8:	0040006f          	j	80002bfc <__ubsan_handle_pointer_overflow+0xf4>
    80002bfc:	01013503          	ld	a0,16(sp)
    80002c00:	01813583          	ld	a1,24(sp)
    80002c04:	02b56e63          	bltu	a0,a1,80002c40 <__ubsan_handle_pointer_overflow+0x138>
    80002c08:	06c0006f          	j	80002c74 <__ubsan_handle_pointer_overflow+0x16c>
    80002c0c:	01013503          	ld	a0,16(sp)
    80002c10:	01813583          	ld	a1,24(sp)
    80002c14:	00813603          	ld	a2,8(sp)
    80002c18:	1ec13023          	sd	a2,480(sp)
    80002c1c:	00100613          	li	a2,1
    80002c20:	1ec10423          	sb	a2,488(sp)
    80002c24:	1eb13823          	sd	a1,496(sp)
    80002c28:	1ea13c23          	sd	a0,504(sp)
    80002c2c:	13810513          	addi	a0,sp,312
    80002c30:	1e010593          	addi	a1,sp,480
    80002c34:	1f010613          	addi	a2,sp,496
    80002c38:	00001097          	auipc	ra,0x1
    80002c3c:	a54080e7          	jalr	-1452(ra) # 8000368c <debug.panicExtra__anon_2485>
    80002c40:	01013503          	ld	a0,16(sp)
    80002c44:	01813583          	ld	a1,24(sp)
    80002c48:	00813603          	ld	a2,8(sp)
    80002c4c:	1ac13023          	sd	a2,416(sp)
    80002c50:	00100613          	li	a2,1
    80002c54:	1ac10423          	sb	a2,424(sp)
    80002c58:	1ab13823          	sd	a1,432(sp)
    80002c5c:	1aa13c23          	sd	a0,440(sp)
    80002c60:	13810513          	addi	a0,sp,312
    80002c64:	1a010593          	addi	a1,sp,416
    80002c68:	1b010613          	addi	a2,sp,432
    80002c6c:	00000097          	auipc	ra,0x0
    80002c70:	628080e7          	jalr	1576(ra) # 80003294 <debug.panicExtra__anon_2472>
    80002c74:	01013503          	ld	a0,16(sp)
    80002c78:	01813583          	ld	a1,24(sp)
    80002c7c:	00813603          	ld	a2,8(sp)
    80002c80:	1cc13023          	sd	a2,448(sp)
    80002c84:	00100613          	li	a2,1
    80002c88:	1cc10423          	sb	a2,456(sp)
    80002c8c:	1cb13823          	sd	a1,464(sp)
    80002c90:	1ca13c23          	sd	a0,472(sp)
    80002c94:	13810513          	addi	a0,sp,312
    80002c98:	1c010593          	addi	a1,sp,448
    80002c9c:	1d010613          	addi	a2,sp,464
    80002ca0:	00000097          	auipc	ra,0x0
    80002ca4:	7f0080e7          	jalr	2032(ra) # 80003490 <debug.panicExtra__anon_2480>

0000000080002ca8 <debug.panicExtra__anon_2443>:
    80002ca8:	81010113          	addi	sp,sp,-2032
    80002cac:	7e113423          	sd	ra,2024(sp)
    80002cb0:	80010113          	addi	sp,sp,-2048
    80002cb4:	f2010113          	addi	sp,sp,-224
    80002cb8:	00001637          	lui	a2,0x1
    80002cbc:	0806061b          	addiw	a2,a2,128 # 1080 <.Lline_table_start0+0xfd2>
    80002cc0:	00c10633          	add	a2,sp,a2
    80002cc4:	02c13423          	sd	a2,40(sp)
    80002cc8:	02b13823          	sd	a1,48(sp)
    80002ccc:	02a13c23          	sd	a0,56(sp)
    80002cd0:	00053503          	ld	a0,0(a0)
    80002cd4:	04a13023          	sd	a0,64(sp)

0000000080002cd8 <.Lpcrel_hi69>:
    80002cd8:	00049517          	auipc	a0,0x49
    80002cdc:	56650513          	addi	a0,a0,1382 # 8004c23e <__anon_2639>
    80002ce0:	04a13823          	sd	a0,80(sp)
    80002ce4:	00001537          	lui	a0,0x1
    80002ce8:	00f5061b          	addiw	a2,a0,15 # 100f <.Lline_table_start0+0xf61>
    80002cec:	05910513          	addi	a0,sp,89
    80002cf0:	04a13423          	sd	a0,72(sp)
    80002cf4:	0aa00593          	li	a1,170
    80002cf8:	0003c097          	auipc	ra,0x3c
    80002cfc:	088080e7          	jalr	136(ra) # 8003ed80 <memset>
    80002d00:	00100513          	li	a0,1
    80002d04:	06051863          	bnez	a0,80002d74 <.Lpcrel_hi69+0x9c>
    80002d08:	0700006f          	j	80002d78 <.Lpcrel_hi69+0xa0>
    80002d0c:	03813583          	ld	a1,56(sp)
    80002d10:	04813603          	ld	a2,72(sp)
    80002d14:	00001537          	lui	a0,0x1
    80002d18:	0885051b          	addiw	a0,a0,136 # 1088 <.Lline_table_start0+0xfda>
    80002d1c:	00a10533          	add	a0,sp,a0
    80002d20:	000016b7          	lui	a3,0x1
    80002d24:	00003097          	auipc	ra,0x3
    80002d28:	984080e7          	jalr	-1660(ra) # 800056a8 <Io.Writer.fixed>
    80002d2c:	02813603          	ld	a2,40(sp)
    80002d30:	03813503          	ld	a0,56(sp)
    80002d34:	02063583          	ld	a1,32(a2)
    80002d38:	00b63023          	sd	a1,0(a2)
    80002d3c:	01863583          	ld	a1,24(a2)
    80002d40:	feb63c23          	sd	a1,-8(a2)
    80002d44:	01063583          	ld	a1,16(a2)
    80002d48:	feb63823          	sd	a1,-16(a2)
    80002d4c:	00863583          	ld	a1,8(a2)
    80002d50:	feb63423          	sd	a1,-24(a2)
    80002d54:	000015b7          	lui	a1,0x1
    80002d58:	0685859b          	addiw	a1,a1,104 # 1068 <.Lline_table_start0+0xfba>
    80002d5c:	00b105b3          	add	a1,sp,a1
    80002d60:	00004097          	auipc	ra,0x4
    80002d64:	5b4080e7          	jalr	1460(ra) # 80007314 <Io.Writer.print__anon_2855>
    80002d68:	03051513          	slli	a0,a0,0x30
    80002d6c:	04050a63          	beqz	a0,80002dc0 <.Lpcrel_hi69+0xe8>
    80002d70:	0740006f          	j	80002de4 <.Lpcrel_hi69+0x10c>
    80002d74:	f99ff06f          	j	80002d0c <.Lpcrel_hi69+0x34>
    80002d78:	03813503          	ld	a0,56(sp)
    80002d7c:	000015b7          	lui	a1,0x1
    80002d80:	00f5861b          	addiw	a2,a1,15 # 100f <.Lline_table_start0+0xf61>
    80002d84:	00003097          	auipc	ra,0x3
    80002d88:	8f4080e7          	jalr	-1804(ra) # 80005678 <debug.FullPanic((function 'panicHandler')).outOfBounds>
    80002d8c:	03013683          	ld	a3,48(sp)
    80002d90:	03813503          	ld	a0,56(sp)
    80002d94:	02813583          	ld	a1,40(sp)
    80002d98:	02013603          	ld	a2,32(sp)
    80002d9c:	01813703          	ld	a4,24(sp)
    80002da0:	02c5b423          	sd	a2,40(a1)
    80002da4:	02e5b823          	sd	a4,48(a1)
    80002da8:	04e5b023          	sd	a4,64(a1)
    80002dac:	02c5bc23          	sd	a2,56(a1)
    80002db0:	0405b603          	ld	a2,64(a1)
    80002db4:	0385b583          	ld	a1,56(a1)
    80002db8:	00003097          	auipc	ra,0x3
    80002dbc:	c98080e7          	jalr	-872(ra) # 80005a50 <main.panicHandler>
    80002dc0:	03813503          	ld	a0,56(sp)
    80002dc4:	000015b7          	lui	a1,0x1
    80002dc8:	0685859b          	addiw	a1,a1,104 # 1068 <.Lline_table_start0+0xfba>
    80002dcc:	00b105b3          	add	a1,sp,a1
    80002dd0:	00003097          	auipc	ra,0x3
    80002dd4:	b9c080e7          	jalr	-1124(ra) # 8000596c <Io.Writer.buffered>
    80002dd8:	02a13023          	sd	a0,32(sp)
    80002ddc:	00b13c23          	sd	a1,24(sp)
    80002de0:	fadff06f          	j	80002d8c <.Lpcrel_hi69+0xb4>
    80002de4:	000015b7          	lui	a1,0x1
    80002de8:	05910513          	addi	a0,sp,89
    80002dec:	00b50533          	add	a0,a0,a1
    80002df0:	00a13823          	sd	a0,16(sp)
    80002df4:	00100513          	li	a0,1
    80002df8:	02051e63          	bnez	a0,80002e34 <.Lpcrel_hi71+0x10>
    80002dfc:	03c0006f          	j	80002e38 <.Lpcrel_hi71+0x14>
    80002e00:	01013503          	ld	a0,16(sp)
    80002e04:	00f50593          	addi	a1,a0,15
    80002e08:	00b13423          	sd	a1,8(sp)

0000000080002e0c <.Lpcrel_hi70>:
    80002e0c:	00049597          	auipc	a1,0x49
    80002e10:	43258593          	addi	a1,a1,1074 # 8004c23e <__anon_2639>
    80002e14:	00f58593          	addi	a1,a1,15
    80002e18:	06b57a63          	bgeu	a0,a1,80002e8c <.Lpcrel_hi72+0x38>
    80002e1c:	0040006f          	j	80002e20 <.Lpcrel_hi70+0x14>
    80002e20:	00813583          	ld	a1,8(sp)

0000000080002e24 <.Lpcrel_hi71>:
    80002e24:	00049517          	auipc	a0,0x49
    80002e28:	41a50513          	addi	a0,a0,1050 # 8004c23e <__anon_2639>
    80002e2c:	06b57063          	bgeu	a0,a1,80002e8c <.Lpcrel_hi72+0x38>
    80002e30:	0600006f          	j	80002e90 <.Lpcrel_hi72+0x3c>
    80002e34:	fcdff06f          	j	80002e00 <.Lpcrel_hi69+0x128>
    80002e38:	03813503          	ld	a0,56(sp)
    80002e3c:	000015b7          	lui	a1,0x1
    80002e40:	00f5861b          	addiw	a2,a1,15 # 100f <.Lline_table_start0+0xf61>
    80002e44:	00060593          	mv	a1,a2
    80002e48:	00003097          	auipc	ra,0x3
    80002e4c:	830080e7          	jalr	-2000(ra) # 80005678 <debug.FullPanic((function 'panicHandler')).outOfBounds>
    80002e50:	01013503          	ld	a0,16(sp)

0000000080002e54 <.Lpcrel_hi72>:
    80002e54:	00049597          	auipc	a1,0x49
    80002e58:	3ea58593          	addi	a1,a1,1002 # 8004c23e <__anon_2639>
    80002e5c:	00f00613          	li	a2,15
    80002e60:	0003c097          	auipc	ra,0x3c
    80002e64:	d28080e7          	jalr	-728(ra) # 8003eb88 <memcpy>
    80002e68:	03813583          	ld	a1,56(sp)
    80002e6c:	04013503          	ld	a0,64(sp)
    80002e70:	00a5b023          	sd	a0,0(a1)
    80002e74:	05910593          	addi	a1,sp,89
    80002e78:	00001537          	lui	a0,0x1
    80002e7c:	00f5051b          	addiw	a0,a0,15 # 100f <.Lline_table_start0+0xf61>
    80002e80:	02b13023          	sd	a1,32(sp)
    80002e84:	00a13c23          	sd	a0,24(sp)
    80002e88:	f05ff06f          	j	80002d8c <.Lpcrel_hi69+0xb4>
    80002e8c:	fc5ff06f          	j	80002e50 <.Lpcrel_hi71+0x2c>
    80002e90:	03813503          	ld	a0,56(sp)
    80002e94:	00003097          	auipc	ra,0x3
    80002e98:	b94080e7          	jalr	-1132(ra) # 80005a28 <debug.FullPanic((function 'panicHandler')).memcpyAlias>

0000000080002e9c <debug.panicExtra__anon_2453>:
    80002e9c:	81010113          	addi	sp,sp,-2032
    80002ea0:	7e113423          	sd	ra,2024(sp)
    80002ea4:	80010113          	addi	sp,sp,-2048
    80002ea8:	f1010113          	addi	sp,sp,-240
    80002eac:	000016b7          	lui	a3,0x1
    80002eb0:	0906869b          	addiw	a3,a3,144 # 1090 <.Lline_table_start0+0xfe2>
    80002eb4:	00d106b3          	add	a3,sp,a3
    80002eb8:	02d13823          	sd	a3,48(sp)
    80002ebc:	02c13c23          	sd	a2,56(sp)
    80002ec0:	04b13023          	sd	a1,64(sp)
    80002ec4:	04a13423          	sd	a0,72(sp)
    80002ec8:	00053503          	ld	a0,0(a0)
    80002ecc:	04a13823          	sd	a0,80(sp)

0000000080002ed0 <.Lpcrel_hi73>:
    80002ed0:	00049517          	auipc	a0,0x49
    80002ed4:	36e50513          	addi	a0,a0,878 # 8004c23e <__anon_2639>
    80002ed8:	06a13023          	sd	a0,96(sp)
    80002edc:	00001537          	lui	a0,0x1
    80002ee0:	00f5061b          	addiw	a2,a0,15 # 100f <.Lline_table_start0+0xf61>
    80002ee4:	06910513          	addi	a0,sp,105
    80002ee8:	04a13c23          	sd	a0,88(sp)
    80002eec:	0aa00593          	li	a1,170
    80002ef0:	0003c097          	auipc	ra,0x3c
    80002ef4:	e90080e7          	jalr	-368(ra) # 8003ed80 <memset>
    80002ef8:	00100513          	li	a0,1
    80002efc:	06051a63          	bnez	a0,80002f70 <.Lpcrel_hi73+0xa0>
    80002f00:	0740006f          	j	80002f74 <.Lpcrel_hi73+0xa4>
    80002f04:	04813583          	ld	a1,72(sp)
    80002f08:	05813603          	ld	a2,88(sp)
    80002f0c:	00001537          	lui	a0,0x1
    80002f10:	0985051b          	addiw	a0,a0,152 # 1098 <.Lline_table_start0+0xfea>
    80002f14:	00a10533          	add	a0,sp,a0
    80002f18:	000016b7          	lui	a3,0x1
    80002f1c:	00002097          	auipc	ra,0x2
    80002f20:	78c080e7          	jalr	1932(ra) # 800056a8 <Io.Writer.fixed>
    80002f24:	03013683          	ld	a3,48(sp)
    80002f28:	04813503          	ld	a0,72(sp)
    80002f2c:	03813603          	ld	a2,56(sp)
    80002f30:	0206b583          	ld	a1,32(a3) # 1020 <.Lline_table_start0+0xf72>
    80002f34:	00b6b023          	sd	a1,0(a3)
    80002f38:	0186b583          	ld	a1,24(a3)
    80002f3c:	feb6bc23          	sd	a1,-8(a3)
    80002f40:	0106b583          	ld	a1,16(a3)
    80002f44:	feb6b823          	sd	a1,-16(a3)
    80002f48:	0086b583          	ld	a1,8(a3)
    80002f4c:	feb6b423          	sd	a1,-24(a3)
    80002f50:	000015b7          	lui	a1,0x1
    80002f54:	0785859b          	addiw	a1,a1,120 # 1078 <.Lline_table_start0+0xfca>
    80002f58:	00b105b3          	add	a1,sp,a1
    80002f5c:	00004097          	auipc	ra,0x4
    80002f60:	42c080e7          	jalr	1068(ra) # 80007388 <Io.Writer.print__anon_2857>
    80002f64:	03051513          	slli	a0,a0,0x30
    80002f68:	04050a63          	beqz	a0,80002fbc <.Lpcrel_hi73+0xec>
    80002f6c:	0740006f          	j	80002fe0 <.Lpcrel_hi73+0x110>
    80002f70:	f95ff06f          	j	80002f04 <.Lpcrel_hi73+0x34>
    80002f74:	04813503          	ld	a0,72(sp)
    80002f78:	000015b7          	lui	a1,0x1
    80002f7c:	00f5861b          	addiw	a2,a1,15 # 100f <.Lline_table_start0+0xf61>
    80002f80:	00002097          	auipc	ra,0x2
    80002f84:	6f8080e7          	jalr	1784(ra) # 80005678 <debug.FullPanic((function 'panicHandler')).outOfBounds>
    80002f88:	04013683          	ld	a3,64(sp)
    80002f8c:	04813503          	ld	a0,72(sp)
    80002f90:	03013583          	ld	a1,48(sp)
    80002f94:	02813603          	ld	a2,40(sp)
    80002f98:	02013703          	ld	a4,32(sp)
    80002f9c:	02c5b423          	sd	a2,40(a1)
    80002fa0:	02e5b823          	sd	a4,48(a1)
    80002fa4:	04e5b023          	sd	a4,64(a1)
    80002fa8:	02c5bc23          	sd	a2,56(a1)
    80002fac:	0405b603          	ld	a2,64(a1)
    80002fb0:	0385b583          	ld	a1,56(a1)
    80002fb4:	00003097          	auipc	ra,0x3
    80002fb8:	a9c080e7          	jalr	-1380(ra) # 80005a50 <main.panicHandler>
    80002fbc:	04813503          	ld	a0,72(sp)
    80002fc0:	000015b7          	lui	a1,0x1
    80002fc4:	0785859b          	addiw	a1,a1,120 # 1078 <.Lline_table_start0+0xfca>
    80002fc8:	00b105b3          	add	a1,sp,a1
    80002fcc:	00003097          	auipc	ra,0x3
    80002fd0:	9a0080e7          	jalr	-1632(ra) # 8000596c <Io.Writer.buffered>
    80002fd4:	02a13423          	sd	a0,40(sp)
    80002fd8:	02b13023          	sd	a1,32(sp)
    80002fdc:	fadff06f          	j	80002f88 <.Lpcrel_hi73+0xb8>
    80002fe0:	000015b7          	lui	a1,0x1
    80002fe4:	06910513          	addi	a0,sp,105
    80002fe8:	00b50533          	add	a0,a0,a1
    80002fec:	00a13c23          	sd	a0,24(sp)
    80002ff0:	00100513          	li	a0,1
    80002ff4:	02051e63          	bnez	a0,80003030 <.Lpcrel_hi75+0x10>
    80002ff8:	03c0006f          	j	80003034 <.Lpcrel_hi75+0x14>
    80002ffc:	01813503          	ld	a0,24(sp)
    80003000:	00f50593          	addi	a1,a0,15
    80003004:	00b13823          	sd	a1,16(sp)

0000000080003008 <.Lpcrel_hi74>:
    80003008:	00049597          	auipc	a1,0x49
    8000300c:	23658593          	addi	a1,a1,566 # 8004c23e <__anon_2639>
    80003010:	00f58593          	addi	a1,a1,15
    80003014:	06b57a63          	bgeu	a0,a1,80003088 <.Lpcrel_hi76+0x38>
    80003018:	0040006f          	j	8000301c <.Lpcrel_hi74+0x14>
    8000301c:	01013583          	ld	a1,16(sp)

0000000080003020 <.Lpcrel_hi75>:
    80003020:	00049517          	auipc	a0,0x49
    80003024:	21e50513          	addi	a0,a0,542 # 8004c23e <__anon_2639>
    80003028:	06b57063          	bgeu	a0,a1,80003088 <.Lpcrel_hi76+0x38>
    8000302c:	0600006f          	j	8000308c <.Lpcrel_hi76+0x3c>
    80003030:	fcdff06f          	j	80002ffc <.Lpcrel_hi73+0x12c>
    80003034:	04813503          	ld	a0,72(sp)
    80003038:	000015b7          	lui	a1,0x1
    8000303c:	00f5861b          	addiw	a2,a1,15 # 100f <.Lline_table_start0+0xf61>
    80003040:	00060593          	mv	a1,a2
    80003044:	00002097          	auipc	ra,0x2
    80003048:	634080e7          	jalr	1588(ra) # 80005678 <debug.FullPanic((function 'panicHandler')).outOfBounds>
    8000304c:	01813503          	ld	a0,24(sp)

0000000080003050 <.Lpcrel_hi76>:
    80003050:	00049597          	auipc	a1,0x49
    80003054:	1ee58593          	addi	a1,a1,494 # 8004c23e <__anon_2639>
    80003058:	00f00613          	li	a2,15
    8000305c:	0003c097          	auipc	ra,0x3c
    80003060:	b2c080e7          	jalr	-1236(ra) # 8003eb88 <memcpy>
    80003064:	04813583          	ld	a1,72(sp)
    80003068:	05013503          	ld	a0,80(sp)
    8000306c:	00a5b023          	sd	a0,0(a1)
    80003070:	06910593          	addi	a1,sp,105
    80003074:	00001537          	lui	a0,0x1
    80003078:	00f5051b          	addiw	a0,a0,15 # 100f <.Lline_table_start0+0xf61>
    8000307c:	02b13423          	sd	a1,40(sp)
    80003080:	02a13023          	sd	a0,32(sp)
    80003084:	f05ff06f          	j	80002f88 <.Lpcrel_hi73+0xb8>
    80003088:	fc5ff06f          	j	8000304c <.Lpcrel_hi75+0x2c>
    8000308c:	04813503          	ld	a0,72(sp)
    80003090:	00003097          	auipc	ra,0x3
    80003094:	998080e7          	jalr	-1640(ra) # 80005a28 <debug.FullPanic((function 'panicHandler')).memcpyAlias>

0000000080003098 <debug.panicExtra__anon_2461>:
    80003098:	81010113          	addi	sp,sp,-2032
    8000309c:	7e113423          	sd	ra,2024(sp)
    800030a0:	80010113          	addi	sp,sp,-2048
    800030a4:	f1010113          	addi	sp,sp,-240
    800030a8:	000016b7          	lui	a3,0x1
    800030ac:	0906869b          	addiw	a3,a3,144 # 1090 <.Lline_table_start0+0xfe2>
    800030b0:	00d106b3          	add	a3,sp,a3
    800030b4:	02d13823          	sd	a3,48(sp)
    800030b8:	02c13c23          	sd	a2,56(sp)
    800030bc:	04b13023          	sd	a1,64(sp)
    800030c0:	04a13423          	sd	a0,72(sp)
    800030c4:	00053503          	ld	a0,0(a0)
    800030c8:	04a13823          	sd	a0,80(sp)

00000000800030cc <.Lpcrel_hi77>:
    800030cc:	00049517          	auipc	a0,0x49
    800030d0:	17250513          	addi	a0,a0,370 # 8004c23e <__anon_2639>
    800030d4:	06a13023          	sd	a0,96(sp)
    800030d8:	00001537          	lui	a0,0x1
    800030dc:	00f5061b          	addiw	a2,a0,15 # 100f <.Lline_table_start0+0xf61>
    800030e0:	06910513          	addi	a0,sp,105
    800030e4:	04a13c23          	sd	a0,88(sp)
    800030e8:	0aa00593          	li	a1,170
    800030ec:	0003c097          	auipc	ra,0x3c
    800030f0:	c94080e7          	jalr	-876(ra) # 8003ed80 <memset>
    800030f4:	00100513          	li	a0,1
    800030f8:	06051a63          	bnez	a0,8000316c <.Lpcrel_hi77+0xa0>
    800030fc:	0740006f          	j	80003170 <.Lpcrel_hi77+0xa4>
    80003100:	04813583          	ld	a1,72(sp)
    80003104:	05813603          	ld	a2,88(sp)
    80003108:	00001537          	lui	a0,0x1
    8000310c:	0985051b          	addiw	a0,a0,152 # 1098 <.Lline_table_start0+0xfea>
    80003110:	00a10533          	add	a0,sp,a0
    80003114:	000016b7          	lui	a3,0x1
    80003118:	00002097          	auipc	ra,0x2
    8000311c:	590080e7          	jalr	1424(ra) # 800056a8 <Io.Writer.fixed>
    80003120:	03013683          	ld	a3,48(sp)
    80003124:	04813503          	ld	a0,72(sp)
    80003128:	03813603          	ld	a2,56(sp)
    8000312c:	0206b583          	ld	a1,32(a3) # 1020 <.Lline_table_start0+0xf72>
    80003130:	00b6b023          	sd	a1,0(a3)
    80003134:	0186b583          	ld	a1,24(a3)
    80003138:	feb6bc23          	sd	a1,-8(a3)
    8000313c:	0106b583          	ld	a1,16(a3)
    80003140:	feb6b823          	sd	a1,-16(a3)
    80003144:	0086b583          	ld	a1,8(a3)
    80003148:	feb6b423          	sd	a1,-24(a3)
    8000314c:	000015b7          	lui	a1,0x1
    80003150:	0785859b          	addiw	a1,a1,120 # 1078 <.Lline_table_start0+0xfca>
    80003154:	00b105b3          	add	a1,sp,a1
    80003158:	00004097          	auipc	ra,0x4
    8000315c:	354080e7          	jalr	852(ra) # 800074ac <Io.Writer.print__anon_2858>
    80003160:	03051513          	slli	a0,a0,0x30
    80003164:	04050a63          	beqz	a0,800031b8 <.Lpcrel_hi77+0xec>
    80003168:	0740006f          	j	800031dc <.Lpcrel_hi77+0x110>
    8000316c:	f95ff06f          	j	80003100 <.Lpcrel_hi77+0x34>
    80003170:	04813503          	ld	a0,72(sp)
    80003174:	000015b7          	lui	a1,0x1
    80003178:	00f5861b          	addiw	a2,a1,15 # 100f <.Lline_table_start0+0xf61>
    8000317c:	00002097          	auipc	ra,0x2
    80003180:	4fc080e7          	jalr	1276(ra) # 80005678 <debug.FullPanic((function 'panicHandler')).outOfBounds>
    80003184:	04013683          	ld	a3,64(sp)
    80003188:	04813503          	ld	a0,72(sp)
    8000318c:	03013583          	ld	a1,48(sp)
    80003190:	02813603          	ld	a2,40(sp)
    80003194:	02013703          	ld	a4,32(sp)
    80003198:	02c5b423          	sd	a2,40(a1)
    8000319c:	02e5b823          	sd	a4,48(a1)
    800031a0:	04e5b023          	sd	a4,64(a1)
    800031a4:	02c5bc23          	sd	a2,56(a1)
    800031a8:	0405b603          	ld	a2,64(a1)
    800031ac:	0385b583          	ld	a1,56(a1)
    800031b0:	00003097          	auipc	ra,0x3
    800031b4:	8a0080e7          	jalr	-1888(ra) # 80005a50 <main.panicHandler>
    800031b8:	04813503          	ld	a0,72(sp)
    800031bc:	000015b7          	lui	a1,0x1
    800031c0:	0785859b          	addiw	a1,a1,120 # 1078 <.Lline_table_start0+0xfca>
    800031c4:	00b105b3          	add	a1,sp,a1
    800031c8:	00002097          	auipc	ra,0x2
    800031cc:	7a4080e7          	jalr	1956(ra) # 8000596c <Io.Writer.buffered>
    800031d0:	02a13423          	sd	a0,40(sp)
    800031d4:	02b13023          	sd	a1,32(sp)
    800031d8:	fadff06f          	j	80003184 <.Lpcrel_hi77+0xb8>
    800031dc:	000015b7          	lui	a1,0x1
    800031e0:	06910513          	addi	a0,sp,105
    800031e4:	00b50533          	add	a0,a0,a1
    800031e8:	00a13c23          	sd	a0,24(sp)
    800031ec:	00100513          	li	a0,1
    800031f0:	02051e63          	bnez	a0,8000322c <.Lpcrel_hi79+0x10>
    800031f4:	03c0006f          	j	80003230 <.Lpcrel_hi79+0x14>
    800031f8:	01813503          	ld	a0,24(sp)
    800031fc:	00f50593          	addi	a1,a0,15
    80003200:	00b13823          	sd	a1,16(sp)

0000000080003204 <.Lpcrel_hi78>:
    80003204:	00049597          	auipc	a1,0x49
    80003208:	03a58593          	addi	a1,a1,58 # 8004c23e <__anon_2639>
    8000320c:	00f58593          	addi	a1,a1,15
    80003210:	06b57a63          	bgeu	a0,a1,80003284 <.Lpcrel_hi80+0x38>
    80003214:	0040006f          	j	80003218 <.Lpcrel_hi78+0x14>
    80003218:	01013583          	ld	a1,16(sp)

000000008000321c <.Lpcrel_hi79>:
    8000321c:	00049517          	auipc	a0,0x49
    80003220:	02250513          	addi	a0,a0,34 # 8004c23e <__anon_2639>
    80003224:	06b57063          	bgeu	a0,a1,80003284 <.Lpcrel_hi80+0x38>
    80003228:	0600006f          	j	80003288 <.Lpcrel_hi80+0x3c>
    8000322c:	fcdff06f          	j	800031f8 <.Lpcrel_hi77+0x12c>
    80003230:	04813503          	ld	a0,72(sp)
    80003234:	000015b7          	lui	a1,0x1
    80003238:	00f5861b          	addiw	a2,a1,15 # 100f <.Lline_table_start0+0xf61>
    8000323c:	00060593          	mv	a1,a2
    80003240:	00002097          	auipc	ra,0x2
    80003244:	438080e7          	jalr	1080(ra) # 80005678 <debug.FullPanic((function 'panicHandler')).outOfBounds>
    80003248:	01813503          	ld	a0,24(sp)

000000008000324c <.Lpcrel_hi80>:
    8000324c:	00049597          	auipc	a1,0x49
    80003250:	ff258593          	addi	a1,a1,-14 # 8004c23e <__anon_2639>
    80003254:	00f00613          	li	a2,15
    80003258:	0003c097          	auipc	ra,0x3c
    8000325c:	930080e7          	jalr	-1744(ra) # 8003eb88 <memcpy>
    80003260:	04813583          	ld	a1,72(sp)
    80003264:	05013503          	ld	a0,80(sp)
    80003268:	00a5b023          	sd	a0,0(a1)
    8000326c:	06910593          	addi	a1,sp,105
    80003270:	00001537          	lui	a0,0x1
    80003274:	00f5051b          	addiw	a0,a0,15 # 100f <.Lline_table_start0+0xf61>
    80003278:	02b13423          	sd	a1,40(sp)
    8000327c:	02a13023          	sd	a0,32(sp)
    80003280:	f05ff06f          	j	80003184 <.Lpcrel_hi77+0xb8>
    80003284:	fc5ff06f          	j	80003248 <.Lpcrel_hi79+0x2c>
    80003288:	04813503          	ld	a0,72(sp)
    8000328c:	00002097          	auipc	ra,0x2
    80003290:	79c080e7          	jalr	1948(ra) # 80005a28 <debug.FullPanic((function 'panicHandler')).memcpyAlias>

0000000080003294 <debug.panicExtra__anon_2472>:
    80003294:	81010113          	addi	sp,sp,-2032
    80003298:	7e113423          	sd	ra,2024(sp)
    8000329c:	80010113          	addi	sp,sp,-2048
    800032a0:	f1010113          	addi	sp,sp,-240
    800032a4:	000016b7          	lui	a3,0x1
    800032a8:	0906869b          	addiw	a3,a3,144 # 1090 <.Lline_table_start0+0xfe2>
    800032ac:	00d106b3          	add	a3,sp,a3
    800032b0:	02d13823          	sd	a3,48(sp)
    800032b4:	02c13c23          	sd	a2,56(sp)
    800032b8:	04b13023          	sd	a1,64(sp)
    800032bc:	04a13423          	sd	a0,72(sp)
    800032c0:	00053503          	ld	a0,0(a0)
    800032c4:	04a13823          	sd	a0,80(sp)

00000000800032c8 <.Lpcrel_hi81>:
    800032c8:	00049517          	auipc	a0,0x49
    800032cc:	f7650513          	addi	a0,a0,-138 # 8004c23e <__anon_2639>
    800032d0:	06a13023          	sd	a0,96(sp)
    800032d4:	00001537          	lui	a0,0x1
    800032d8:	00f5061b          	addiw	a2,a0,15 # 100f <.Lline_table_start0+0xf61>
    800032dc:	06910513          	addi	a0,sp,105
    800032e0:	04a13c23          	sd	a0,88(sp)
    800032e4:	0aa00593          	li	a1,170
    800032e8:	0003c097          	auipc	ra,0x3c
    800032ec:	a98080e7          	jalr	-1384(ra) # 8003ed80 <memset>
    800032f0:	00100513          	li	a0,1
    800032f4:	06051a63          	bnez	a0,80003368 <.Lpcrel_hi81+0xa0>
    800032f8:	0740006f          	j	8000336c <.Lpcrel_hi81+0xa4>
    800032fc:	04813583          	ld	a1,72(sp)
    80003300:	05813603          	ld	a2,88(sp)
    80003304:	00001537          	lui	a0,0x1
    80003308:	0985051b          	addiw	a0,a0,152 # 1098 <.Lline_table_start0+0xfea>
    8000330c:	00a10533          	add	a0,sp,a0
    80003310:	000016b7          	lui	a3,0x1
    80003314:	00002097          	auipc	ra,0x2
    80003318:	394080e7          	jalr	916(ra) # 800056a8 <Io.Writer.fixed>
    8000331c:	03013683          	ld	a3,48(sp)
    80003320:	04813503          	ld	a0,72(sp)
    80003324:	03813603          	ld	a2,56(sp)
    80003328:	0206b583          	ld	a1,32(a3) # 1020 <.Lline_table_start0+0xf72>
    8000332c:	00b6b023          	sd	a1,0(a3)
    80003330:	0186b583          	ld	a1,24(a3)
    80003334:	feb6bc23          	sd	a1,-8(a3)
    80003338:	0106b583          	ld	a1,16(a3)
    8000333c:	feb6b823          	sd	a1,-16(a3)
    80003340:	0086b583          	ld	a1,8(a3)
    80003344:	feb6b423          	sd	a1,-24(a3)
    80003348:	000015b7          	lui	a1,0x1
    8000334c:	0785859b          	addiw	a1,a1,120 # 1078 <.Lline_table_start0+0xfca>
    80003350:	00b105b3          	add	a1,sp,a1
    80003354:	00004097          	auipc	ra,0x4
    80003358:	27c080e7          	jalr	636(ra) # 800075d0 <Io.Writer.print__anon_2860>
    8000335c:	03051513          	slli	a0,a0,0x30
    80003360:	04050a63          	beqz	a0,800033b4 <.Lpcrel_hi81+0xec>
    80003364:	0740006f          	j	800033d8 <.Lpcrel_hi81+0x110>
    80003368:	f95ff06f          	j	800032fc <.Lpcrel_hi81+0x34>
    8000336c:	04813503          	ld	a0,72(sp)
    80003370:	000015b7          	lui	a1,0x1
    80003374:	00f5861b          	addiw	a2,a1,15 # 100f <.Lline_table_start0+0xf61>
    80003378:	00002097          	auipc	ra,0x2
    8000337c:	300080e7          	jalr	768(ra) # 80005678 <debug.FullPanic((function 'panicHandler')).outOfBounds>
    80003380:	04013683          	ld	a3,64(sp)
    80003384:	04813503          	ld	a0,72(sp)
    80003388:	03013583          	ld	a1,48(sp)
    8000338c:	02813603          	ld	a2,40(sp)
    80003390:	02013703          	ld	a4,32(sp)
    80003394:	02c5b423          	sd	a2,40(a1)
    80003398:	02e5b823          	sd	a4,48(a1)
    8000339c:	04e5b023          	sd	a4,64(a1)
    800033a0:	02c5bc23          	sd	a2,56(a1)
    800033a4:	0405b603          	ld	a2,64(a1)
    800033a8:	0385b583          	ld	a1,56(a1)
    800033ac:	00002097          	auipc	ra,0x2
    800033b0:	6a4080e7          	jalr	1700(ra) # 80005a50 <main.panicHandler>
    800033b4:	04813503          	ld	a0,72(sp)
    800033b8:	000015b7          	lui	a1,0x1
    800033bc:	0785859b          	addiw	a1,a1,120 # 1078 <.Lline_table_start0+0xfca>
    800033c0:	00b105b3          	add	a1,sp,a1
    800033c4:	00002097          	auipc	ra,0x2
    800033c8:	5a8080e7          	jalr	1448(ra) # 8000596c <Io.Writer.buffered>
    800033cc:	02a13423          	sd	a0,40(sp)
    800033d0:	02b13023          	sd	a1,32(sp)
    800033d4:	fadff06f          	j	80003380 <.Lpcrel_hi81+0xb8>
    800033d8:	000015b7          	lui	a1,0x1
    800033dc:	06910513          	addi	a0,sp,105
    800033e0:	00b50533          	add	a0,a0,a1
    800033e4:	00a13c23          	sd	a0,24(sp)
    800033e8:	00100513          	li	a0,1
    800033ec:	02051e63          	bnez	a0,80003428 <.Lpcrel_hi83+0x10>
    800033f0:	03c0006f          	j	8000342c <.Lpcrel_hi83+0x14>
    800033f4:	01813503          	ld	a0,24(sp)
    800033f8:	00f50593          	addi	a1,a0,15
    800033fc:	00b13823          	sd	a1,16(sp)

0000000080003400 <.Lpcrel_hi82>:
    80003400:	00049597          	auipc	a1,0x49
    80003404:	e3e58593          	addi	a1,a1,-450 # 8004c23e <__anon_2639>
    80003408:	00f58593          	addi	a1,a1,15
    8000340c:	06b57a63          	bgeu	a0,a1,80003480 <.Lpcrel_hi84+0x38>
    80003410:	0040006f          	j	80003414 <.Lpcrel_hi82+0x14>
    80003414:	01013583          	ld	a1,16(sp)

0000000080003418 <.Lpcrel_hi83>:
    80003418:	00049517          	auipc	a0,0x49
    8000341c:	e2650513          	addi	a0,a0,-474 # 8004c23e <__anon_2639>
    80003420:	06b57063          	bgeu	a0,a1,80003480 <.Lpcrel_hi84+0x38>
    80003424:	0600006f          	j	80003484 <.Lpcrel_hi84+0x3c>
    80003428:	fcdff06f          	j	800033f4 <.Lpcrel_hi81+0x12c>
    8000342c:	04813503          	ld	a0,72(sp)
    80003430:	000015b7          	lui	a1,0x1
    80003434:	00f5861b          	addiw	a2,a1,15 # 100f <.Lline_table_start0+0xf61>
    80003438:	00060593          	mv	a1,a2
    8000343c:	00002097          	auipc	ra,0x2
    80003440:	23c080e7          	jalr	572(ra) # 80005678 <debug.FullPanic((function 'panicHandler')).outOfBounds>
    80003444:	01813503          	ld	a0,24(sp)

0000000080003448 <.Lpcrel_hi84>:
    80003448:	00049597          	auipc	a1,0x49
    8000344c:	df658593          	addi	a1,a1,-522 # 8004c23e <__anon_2639>
    80003450:	00f00613          	li	a2,15
    80003454:	0003b097          	auipc	ra,0x3b
    80003458:	734080e7          	jalr	1844(ra) # 8003eb88 <memcpy>
    8000345c:	04813583          	ld	a1,72(sp)
    80003460:	05013503          	ld	a0,80(sp)
    80003464:	00a5b023          	sd	a0,0(a1)
    80003468:	06910593          	addi	a1,sp,105
    8000346c:	00001537          	lui	a0,0x1
    80003470:	00f5051b          	addiw	a0,a0,15 # 100f <.Lline_table_start0+0xf61>
    80003474:	02b13423          	sd	a1,40(sp)
    80003478:	02a13023          	sd	a0,32(sp)
    8000347c:	f05ff06f          	j	80003380 <.Lpcrel_hi81+0xb8>
    80003480:	fc5ff06f          	j	80003444 <.Lpcrel_hi83+0x2c>
    80003484:	04813503          	ld	a0,72(sp)
    80003488:	00002097          	auipc	ra,0x2
    8000348c:	5a0080e7          	jalr	1440(ra) # 80005a28 <debug.FullPanic((function 'panicHandler')).memcpyAlias>

0000000080003490 <debug.panicExtra__anon_2480>:
    80003490:	81010113          	addi	sp,sp,-2032
    80003494:	7e113423          	sd	ra,2024(sp)
    80003498:	80010113          	addi	sp,sp,-2048
    8000349c:	f1010113          	addi	sp,sp,-240
    800034a0:	000016b7          	lui	a3,0x1
    800034a4:	0906869b          	addiw	a3,a3,144 # 1090 <.Lline_table_start0+0xfe2>
    800034a8:	00d106b3          	add	a3,sp,a3
    800034ac:	02d13823          	sd	a3,48(sp)
    800034b0:	02c13c23          	sd	a2,56(sp)
    800034b4:	04b13023          	sd	a1,64(sp)
    800034b8:	04a13423          	sd	a0,72(sp)
    800034bc:	00053503          	ld	a0,0(a0)
    800034c0:	04a13823          	sd	a0,80(sp)

00000000800034c4 <.Lpcrel_hi85>:
    800034c4:	00049517          	auipc	a0,0x49
    800034c8:	d7a50513          	addi	a0,a0,-646 # 8004c23e <__anon_2639>
    800034cc:	06a13023          	sd	a0,96(sp)
    800034d0:	00001537          	lui	a0,0x1
    800034d4:	00f5061b          	addiw	a2,a0,15 # 100f <.Lline_table_start0+0xf61>
    800034d8:	06910513          	addi	a0,sp,105
    800034dc:	04a13c23          	sd	a0,88(sp)
    800034e0:	0aa00593          	li	a1,170
    800034e4:	0003c097          	auipc	ra,0x3c
    800034e8:	89c080e7          	jalr	-1892(ra) # 8003ed80 <memset>
    800034ec:	00100513          	li	a0,1
    800034f0:	06051a63          	bnez	a0,80003564 <.Lpcrel_hi85+0xa0>
    800034f4:	0740006f          	j	80003568 <.Lpcrel_hi85+0xa4>
    800034f8:	04813583          	ld	a1,72(sp)
    800034fc:	05813603          	ld	a2,88(sp)
    80003500:	00001537          	lui	a0,0x1
    80003504:	0985051b          	addiw	a0,a0,152 # 1098 <.Lline_table_start0+0xfea>
    80003508:	00a10533          	add	a0,sp,a0
    8000350c:	000016b7          	lui	a3,0x1
    80003510:	00002097          	auipc	ra,0x2
    80003514:	198080e7          	jalr	408(ra) # 800056a8 <Io.Writer.fixed>
    80003518:	03013683          	ld	a3,48(sp)
    8000351c:	04813503          	ld	a0,72(sp)
    80003520:	03813603          	ld	a2,56(sp)
    80003524:	0206b583          	ld	a1,32(a3) # 1020 <.Lline_table_start0+0xf72>
    80003528:	00b6b023          	sd	a1,0(a3)
    8000352c:	0186b583          	ld	a1,24(a3)
    80003530:	feb6bc23          	sd	a1,-8(a3)
    80003534:	0106b583          	ld	a1,16(a3)
    80003538:	feb6b823          	sd	a1,-16(a3)
    8000353c:	0086b583          	ld	a1,8(a3)
    80003540:	feb6b423          	sd	a1,-24(a3)
    80003544:	000015b7          	lui	a1,0x1
    80003548:	0785859b          	addiw	a1,a1,120 # 1078 <.Lline_table_start0+0xfca>
    8000354c:	00b105b3          	add	a1,sp,a1
    80003550:	00004097          	auipc	ra,0x4
    80003554:	204080e7          	jalr	516(ra) # 80007754 <Io.Writer.print__anon_2861>
    80003558:	03051513          	slli	a0,a0,0x30
    8000355c:	04050a63          	beqz	a0,800035b0 <.Lpcrel_hi85+0xec>
    80003560:	0740006f          	j	800035d4 <.Lpcrel_hi85+0x110>
    80003564:	f95ff06f          	j	800034f8 <.Lpcrel_hi85+0x34>
    80003568:	04813503          	ld	a0,72(sp)
    8000356c:	000015b7          	lui	a1,0x1
    80003570:	00f5861b          	addiw	a2,a1,15 # 100f <.Lline_table_start0+0xf61>
    80003574:	00002097          	auipc	ra,0x2
    80003578:	104080e7          	jalr	260(ra) # 80005678 <debug.FullPanic((function 'panicHandler')).outOfBounds>
    8000357c:	04013683          	ld	a3,64(sp)
    80003580:	04813503          	ld	a0,72(sp)
    80003584:	03013583          	ld	a1,48(sp)
    80003588:	02813603          	ld	a2,40(sp)
    8000358c:	02013703          	ld	a4,32(sp)
    80003590:	02c5b423          	sd	a2,40(a1)
    80003594:	02e5b823          	sd	a4,48(a1)
    80003598:	04e5b023          	sd	a4,64(a1)
    8000359c:	02c5bc23          	sd	a2,56(a1)
    800035a0:	0405b603          	ld	a2,64(a1)
    800035a4:	0385b583          	ld	a1,56(a1)
    800035a8:	00002097          	auipc	ra,0x2
    800035ac:	4a8080e7          	jalr	1192(ra) # 80005a50 <main.panicHandler>
    800035b0:	04813503          	ld	a0,72(sp)
    800035b4:	000015b7          	lui	a1,0x1
    800035b8:	0785859b          	addiw	a1,a1,120 # 1078 <.Lline_table_start0+0xfca>
    800035bc:	00b105b3          	add	a1,sp,a1
    800035c0:	00002097          	auipc	ra,0x2
    800035c4:	3ac080e7          	jalr	940(ra) # 8000596c <Io.Writer.buffered>
    800035c8:	02a13423          	sd	a0,40(sp)
    800035cc:	02b13023          	sd	a1,32(sp)
    800035d0:	fadff06f          	j	8000357c <.Lpcrel_hi85+0xb8>
    800035d4:	000015b7          	lui	a1,0x1
    800035d8:	06910513          	addi	a0,sp,105
    800035dc:	00b50533          	add	a0,a0,a1
    800035e0:	00a13c23          	sd	a0,24(sp)
    800035e4:	00100513          	li	a0,1
    800035e8:	02051e63          	bnez	a0,80003624 <.Lpcrel_hi87+0x10>
    800035ec:	03c0006f          	j	80003628 <.Lpcrel_hi87+0x14>
    800035f0:	01813503          	ld	a0,24(sp)
    800035f4:	00f50593          	addi	a1,a0,15
    800035f8:	00b13823          	sd	a1,16(sp)

00000000800035fc <.Lpcrel_hi86>:
    800035fc:	00049597          	auipc	a1,0x49
    80003600:	c4258593          	addi	a1,a1,-958 # 8004c23e <__anon_2639>
    80003604:	00f58593          	addi	a1,a1,15
    80003608:	06b57a63          	bgeu	a0,a1,8000367c <.Lpcrel_hi88+0x38>
    8000360c:	0040006f          	j	80003610 <.Lpcrel_hi86+0x14>
    80003610:	01013583          	ld	a1,16(sp)

0000000080003614 <.Lpcrel_hi87>:
    80003614:	00049517          	auipc	a0,0x49
    80003618:	c2a50513          	addi	a0,a0,-982 # 8004c23e <__anon_2639>
    8000361c:	06b57063          	bgeu	a0,a1,8000367c <.Lpcrel_hi88+0x38>
    80003620:	0600006f          	j	80003680 <.Lpcrel_hi88+0x3c>
    80003624:	fcdff06f          	j	800035f0 <.Lpcrel_hi85+0x12c>
    80003628:	04813503          	ld	a0,72(sp)
    8000362c:	000015b7          	lui	a1,0x1
    80003630:	00f5861b          	addiw	a2,a1,15 # 100f <.Lline_table_start0+0xf61>
    80003634:	00060593          	mv	a1,a2
    80003638:	00002097          	auipc	ra,0x2
    8000363c:	040080e7          	jalr	64(ra) # 80005678 <debug.FullPanic((function 'panicHandler')).outOfBounds>
    80003640:	01813503          	ld	a0,24(sp)

0000000080003644 <.Lpcrel_hi88>:
    80003644:	00049597          	auipc	a1,0x49
    80003648:	bfa58593          	addi	a1,a1,-1030 # 8004c23e <__anon_2639>
    8000364c:	00f00613          	li	a2,15
    80003650:	0003b097          	auipc	ra,0x3b
    80003654:	538080e7          	jalr	1336(ra) # 8003eb88 <memcpy>
    80003658:	04813583          	ld	a1,72(sp)
    8000365c:	05013503          	ld	a0,80(sp)
    80003660:	00a5b023          	sd	a0,0(a1)
    80003664:	06910593          	addi	a1,sp,105
    80003668:	00001537          	lui	a0,0x1
    8000366c:	00f5051b          	addiw	a0,a0,15 # 100f <.Lline_table_start0+0xf61>
    80003670:	02b13423          	sd	a1,40(sp)
    80003674:	02a13023          	sd	a0,32(sp)
    80003678:	f05ff06f          	j	8000357c <.Lpcrel_hi85+0xb8>
    8000367c:	fc5ff06f          	j	80003640 <.Lpcrel_hi87+0x2c>
    80003680:	04813503          	ld	a0,72(sp)
    80003684:	00002097          	auipc	ra,0x2
    80003688:	3a4080e7          	jalr	932(ra) # 80005a28 <debug.FullPanic((function 'panicHandler')).memcpyAlias>

000000008000368c <debug.panicExtra__anon_2485>:
    8000368c:	81010113          	addi	sp,sp,-2032
    80003690:	7e113423          	sd	ra,2024(sp)
    80003694:	80010113          	addi	sp,sp,-2048
    80003698:	f1010113          	addi	sp,sp,-240
    8000369c:	000016b7          	lui	a3,0x1
    800036a0:	0906869b          	addiw	a3,a3,144 # 1090 <.Lline_table_start0+0xfe2>
    800036a4:	00d106b3          	add	a3,sp,a3
    800036a8:	02d13823          	sd	a3,48(sp)
    800036ac:	02c13c23          	sd	a2,56(sp)
    800036b0:	04b13023          	sd	a1,64(sp)
    800036b4:	04a13423          	sd	a0,72(sp)
    800036b8:	00053503          	ld	a0,0(a0)
    800036bc:	04a13823          	sd	a0,80(sp)

00000000800036c0 <.Lpcrel_hi89>:
    800036c0:	00049517          	auipc	a0,0x49
    800036c4:	b7e50513          	addi	a0,a0,-1154 # 8004c23e <__anon_2639>
    800036c8:	06a13023          	sd	a0,96(sp)
    800036cc:	00001537          	lui	a0,0x1
    800036d0:	00f5061b          	addiw	a2,a0,15 # 100f <.Lline_table_start0+0xf61>
    800036d4:	06910513          	addi	a0,sp,105
    800036d8:	04a13c23          	sd	a0,88(sp)
    800036dc:	0aa00593          	li	a1,170
    800036e0:	0003b097          	auipc	ra,0x3b
    800036e4:	6a0080e7          	jalr	1696(ra) # 8003ed80 <memset>
    800036e8:	00100513          	li	a0,1
    800036ec:	06051a63          	bnez	a0,80003760 <.Lpcrel_hi89+0xa0>
    800036f0:	0740006f          	j	80003764 <.Lpcrel_hi89+0xa4>
    800036f4:	04813583          	ld	a1,72(sp)
    800036f8:	05813603          	ld	a2,88(sp)
    800036fc:	00001537          	lui	a0,0x1
    80003700:	0985051b          	addiw	a0,a0,152 # 1098 <.Lline_table_start0+0xfea>
    80003704:	00a10533          	add	a0,sp,a0
    80003708:	000016b7          	lui	a3,0x1
    8000370c:	00002097          	auipc	ra,0x2
    80003710:	f9c080e7          	jalr	-100(ra) # 800056a8 <Io.Writer.fixed>
    80003714:	03013683          	ld	a3,48(sp)
    80003718:	04813503          	ld	a0,72(sp)
    8000371c:	03813603          	ld	a2,56(sp)
    80003720:	0206b583          	ld	a1,32(a3) # 1020 <.Lline_table_start0+0xf72>
    80003724:	00b6b023          	sd	a1,0(a3)
    80003728:	0186b583          	ld	a1,24(a3)
    8000372c:	feb6bc23          	sd	a1,-8(a3)
    80003730:	0106b583          	ld	a1,16(a3)
    80003734:	feb6b823          	sd	a1,-16(a3)
    80003738:	0086b583          	ld	a1,8(a3)
    8000373c:	feb6b423          	sd	a1,-24(a3)
    80003740:	000015b7          	lui	a1,0x1
    80003744:	0785859b          	addiw	a1,a1,120 # 1078 <.Lline_table_start0+0xfca>
    80003748:	00b105b3          	add	a1,sp,a1
    8000374c:	00004097          	auipc	ra,0x4
    80003750:	18c080e7          	jalr	396(ra) # 800078d8 <Io.Writer.print__anon_2862>
    80003754:	03051513          	slli	a0,a0,0x30
    80003758:	04050a63          	beqz	a0,800037ac <.Lpcrel_hi89+0xec>
    8000375c:	0740006f          	j	800037d0 <.Lpcrel_hi89+0x110>
    80003760:	f95ff06f          	j	800036f4 <.Lpcrel_hi89+0x34>
    80003764:	04813503          	ld	a0,72(sp)
    80003768:	000015b7          	lui	a1,0x1
    8000376c:	00f5861b          	addiw	a2,a1,15 # 100f <.Lline_table_start0+0xf61>
    80003770:	00002097          	auipc	ra,0x2
    80003774:	f08080e7          	jalr	-248(ra) # 80005678 <debug.FullPanic((function 'panicHandler')).outOfBounds>
    80003778:	04013683          	ld	a3,64(sp)
    8000377c:	04813503          	ld	a0,72(sp)
    80003780:	03013583          	ld	a1,48(sp)
    80003784:	02813603          	ld	a2,40(sp)
    80003788:	02013703          	ld	a4,32(sp)
    8000378c:	02c5b423          	sd	a2,40(a1)
    80003790:	02e5b823          	sd	a4,48(a1)
    80003794:	04e5b023          	sd	a4,64(a1)
    80003798:	02c5bc23          	sd	a2,56(a1)
    8000379c:	0405b603          	ld	a2,64(a1)
    800037a0:	0385b583          	ld	a1,56(a1)
    800037a4:	00002097          	auipc	ra,0x2
    800037a8:	2ac080e7          	jalr	684(ra) # 80005a50 <main.panicHandler>
    800037ac:	04813503          	ld	a0,72(sp)
    800037b0:	000015b7          	lui	a1,0x1
    800037b4:	0785859b          	addiw	a1,a1,120 # 1078 <.Lline_table_start0+0xfca>
    800037b8:	00b105b3          	add	a1,sp,a1
    800037bc:	00002097          	auipc	ra,0x2
    800037c0:	1b0080e7          	jalr	432(ra) # 8000596c <Io.Writer.buffered>
    800037c4:	02a13423          	sd	a0,40(sp)
    800037c8:	02b13023          	sd	a1,32(sp)
    800037cc:	fadff06f          	j	80003778 <.Lpcrel_hi89+0xb8>
    800037d0:	000015b7          	lui	a1,0x1
    800037d4:	06910513          	addi	a0,sp,105
    800037d8:	00b50533          	add	a0,a0,a1
    800037dc:	00a13c23          	sd	a0,24(sp)
    800037e0:	00100513          	li	a0,1
    800037e4:	02051e63          	bnez	a0,80003820 <.Lpcrel_hi91+0x10>
    800037e8:	03c0006f          	j	80003824 <.Lpcrel_hi91+0x14>
    800037ec:	01813503          	ld	a0,24(sp)
    800037f0:	00f50593          	addi	a1,a0,15
    800037f4:	00b13823          	sd	a1,16(sp)

00000000800037f8 <.Lpcrel_hi90>:
    800037f8:	00049597          	auipc	a1,0x49
    800037fc:	a4658593          	addi	a1,a1,-1466 # 8004c23e <__anon_2639>
    80003800:	00f58593          	addi	a1,a1,15
    80003804:	06b57a63          	bgeu	a0,a1,80003878 <.Lpcrel_hi92+0x38>
    80003808:	0040006f          	j	8000380c <.Lpcrel_hi90+0x14>
    8000380c:	01013583          	ld	a1,16(sp)

0000000080003810 <.Lpcrel_hi91>:
    80003810:	00049517          	auipc	a0,0x49
    80003814:	a2e50513          	addi	a0,a0,-1490 # 8004c23e <__anon_2639>
    80003818:	06b57063          	bgeu	a0,a1,80003878 <.Lpcrel_hi92+0x38>
    8000381c:	0600006f          	j	8000387c <.Lpcrel_hi92+0x3c>
    80003820:	fcdff06f          	j	800037ec <.Lpcrel_hi89+0x12c>
    80003824:	04813503          	ld	a0,72(sp)
    80003828:	000015b7          	lui	a1,0x1
    8000382c:	00f5861b          	addiw	a2,a1,15 # 100f <.Lline_table_start0+0xf61>
    80003830:	00060593          	mv	a1,a2
    80003834:	00002097          	auipc	ra,0x2
    80003838:	e44080e7          	jalr	-444(ra) # 80005678 <debug.FullPanic((function 'panicHandler')).outOfBounds>
    8000383c:	01813503          	ld	a0,24(sp)

0000000080003840 <.Lpcrel_hi92>:
    80003840:	00049597          	auipc	a1,0x49
    80003844:	9fe58593          	addi	a1,a1,-1538 # 8004c23e <__anon_2639>
    80003848:	00f00613          	li	a2,15
    8000384c:	0003b097          	auipc	ra,0x3b
    80003850:	33c080e7          	jalr	828(ra) # 8003eb88 <memcpy>
    80003854:	04813583          	ld	a1,72(sp)
    80003858:	05013503          	ld	a0,80(sp)
    8000385c:	00a5b023          	sd	a0,0(a1)
    80003860:	06910593          	addi	a1,sp,105
    80003864:	00001537          	lui	a0,0x1
    80003868:	00f5051b          	addiw	a0,a0,15 # 100f <.Lline_table_start0+0xf61>
    8000386c:	02b13423          	sd	a1,40(sp)
    80003870:	02a13023          	sd	a0,32(sp)
    80003874:	f05ff06f          	j	80003778 <.Lpcrel_hi89+0xb8>
    80003878:	fc5ff06f          	j	8000383c <.Lpcrel_hi91+0x2c>
    8000387c:	04813503          	ld	a0,72(sp)
    80003880:	00002097          	auipc	ra,0x2
    80003884:	1a8080e7          	jalr	424(ra) # 80005a28 <debug.FullPanic((function 'panicHandler')).memcpyAlias>

0000000080003888 <__ubsan_handle_pointer_overflow_abort>:
    80003888:	fe010113          	addi	sp,sp,-32
    8000388c:	00a13423          	sd	a0,8(sp)
    80003890:	00b13823          	sd	a1,16(sp)
    80003894:	00c13c23          	sd	a2,24(sp)
    80003898:	fffff097          	auipc	ra,0xfffff
    8000389c:	270080e7          	jalr	624(ra) # 80002b08 <__ubsan_handle_pointer_overflow>

00000000800038a0 <__ubsan_handle_shift_out_of_bounds>:
    800038a0:	d5010113          	addi	sp,sp,-688
    800038a4:	2a113423          	sd	ra,680(sp)
    800038a8:	06113023          	sd	ra,96(sp)
    800038ac:	06a13423          	sd	a0,104(sp)
    800038b0:	06b13823          	sd	a1,112(sp)
    800038b4:	06c13c23          	sd	a2,120(sp)
    800038b8:	02000693          	li	a3,32
    800038bc:	18d13823          	sd	a3,400(sp)
    800038c0:	08010693          	addi	a3,sp,128
    800038c4:	18d13423          	sd	a3,392(sp)
    800038c8:	00000693          	li	a3,0
    800038cc:	18d13023          	sd	a3,384(sp)
    800038d0:	18a13c23          	sd	a0,408(sp)
    800038d4:	1ab13423          	sd	a1,424(sp)
    800038d8:	01053583          	ld	a1,16(a0)
    800038dc:	1ab13023          	sd	a1,416(sp)
    800038e0:	1ac13c23          	sd	a2,440(sp)
    800038e4:	01853503          	ld	a0,24(a0)
    800038e8:	1aa13823          	sd	a0,432(sp)
    800038ec:	18010513          	addi	a0,sp,384
    800038f0:	1b010593          	addi	a1,sp,432
    800038f4:	00000097          	auipc	ra,0x0
    800038f8:	268080e7          	jalr	616(ra) # 80003b5c <ubsan_rt.Value.isNegative>
    800038fc:	00157513          	andi	a0,a0,1
    80003900:	00051c63          	bnez	a0,80003918 <__ubsan_handle_shift_out_of_bounds+0x78>
    80003904:	0200006f          	j	80003924 <__ubsan_handle_shift_out_of_bounds+0x84>
    80003908:	05813503          	ld	a0,88(sp)
    8000390c:	00157513          	andi	a0,a0,1
    80003910:	08051063          	bnez	a0,80003990 <__ubsan_handle_shift_out_of_bounds+0xf0>
    80003914:	0980006f          	j	800039ac <__ubsan_handle_shift_out_of_bounds+0x10c>
    80003918:	00100513          	li	a0,1
    8000391c:	04a13c23          	sd	a0,88(sp)
    80003920:	fe9ff06f          	j	80003908 <__ubsan_handle_shift_out_of_bounds+0x68>
    80003924:	18010513          	addi	a0,sp,384
    80003928:	02a13823          	sd	a0,48(sp)
    8000392c:	1b010593          	addi	a1,sp,432
    80003930:	00000097          	auipc	ra,0x0
    80003934:	298080e7          	jalr	664(ra) # 80003bc8 <ubsan_rt.Value.getPositiveInteger>
    80003938:	00050613          	mv	a2,a0
    8000393c:	03013503          	ld	a0,48(sp)
    80003940:	04c13023          	sd	a2,64(sp)
    80003944:	02b13c23          	sd	a1,56(sp)
    80003948:	19813583          	ld	a1,408(sp)
    8000394c:	0105b583          	ld	a1,16(a1)
    80003950:	00000097          	auipc	ra,0x0
    80003954:	338080e7          	jalr	824(ra) # 80003c88 <ubsan_rt.TypeDescriptor.getIntegerSize>
    80003958:	03813583          	ld	a1,56(sp)
    8000395c:	00050613          	mv	a2,a0
    80003960:	04013503          	ld	a0,64(sp)
    80003964:	00c53533          	sltu	a0,a0,a2
    80003968:	00154513          	xori	a0,a0,1
    8000396c:	00100613          	li	a2,1
    80003970:	04c13423          	sd	a2,72(sp)
    80003974:	04a13823          	sd	a0,80(sp)
    80003978:	00058663          	beqz	a1,80003984 <__ubsan_handle_shift_out_of_bounds+0xe4>
    8000397c:	04813503          	ld	a0,72(sp)
    80003980:	04a13823          	sd	a0,80(sp)
    80003984:	05013503          	ld	a0,80(sp)
    80003988:	04a13c23          	sd	a0,88(sp)
    8000398c:	f7dff06f          	j	80003908 <__ubsan_handle_shift_out_of_bounds+0x68>
    80003990:	18010513          	addi	a0,sp,384
    80003994:	1b010593          	addi	a1,sp,432
    80003998:	00000097          	auipc	ra,0x0
    8000399c:	1c4080e7          	jalr	452(ra) # 80003b5c <ubsan_rt.Value.isNegative>
    800039a0:	00157513          	andi	a0,a0,1
    800039a4:	02051263          	bnez	a0,800039c8 <__ubsan_handle_shift_out_of_bounds+0x128>
    800039a8:	0540006f          	j	800039fc <__ubsan_handle_shift_out_of_bounds+0x15c>
    800039ac:	18010513          	addi	a0,sp,384
    800039b0:	1a010593          	addi	a1,sp,416
    800039b4:	00000097          	auipc	ra,0x0
    800039b8:	1a8080e7          	jalr	424(ra) # 80003b5c <ubsan_rt.Value.isNegative>
    800039bc:	00157513          	andi	a0,a0,1
    800039c0:	0c051a63          	bnez	a0,80003a94 <__ubsan_handle_shift_out_of_bounds+0x1f4>
    800039c4:	1040006f          	j	80003ac8 <__ubsan_handle_shift_out_of_bounds+0x228>
    800039c8:	06013503          	ld	a0,96(sp)
    800039cc:	1ca13023          	sd	a0,448(sp)
    800039d0:	00100513          	li	a0,1
    800039d4:	1ca10423          	sb	a0,456(sp)
    800039d8:	1b813503          	ld	a0,440(sp)
    800039dc:	1ca13c23          	sd	a0,472(sp)
    800039e0:	1b013503          	ld	a0,432(sp)
    800039e4:	1ca13823          	sd	a0,464(sp)
    800039e8:	18010513          	addi	a0,sp,384
    800039ec:	1c010593          	addi	a1,sp,448
    800039f0:	1d010613          	addi	a2,sp,464
    800039f4:	00000097          	auipc	ra,0x0
    800039f8:	2f8080e7          	jalr	760(ra) # 80003cec <debug.panicExtra__anon_2504>
    800039fc:	06013503          	ld	a0,96(sp)
    80003a00:	1ea13023          	sd	a0,480(sp)
    80003a04:	00100513          	li	a0,1
    80003a08:	1ea10423          	sb	a0,488(sp)
    80003a0c:	1b813503          	ld	a0,440(sp)
    80003a10:	1ea13c23          	sd	a0,504(sp)
    80003a14:	1b013503          	ld	a0,432(sp)
    80003a18:	1ea13823          	sd	a0,496(sp)
    80003a1c:	19813503          	ld	a0,408(sp)
    80003a20:	01053583          	ld	a1,16(a0)
    80003a24:	18010513          	addi	a0,sp,384
    80003a28:	02a13023          	sd	a0,32(sp)
    80003a2c:	00000097          	auipc	ra,0x0
    80003a30:	25c080e7          	jalr	604(ra) # 80003c88 <ubsan_rt.TypeDescriptor.getIntegerSize>
    80003a34:	00050593          	mv	a1,a0
    80003a38:	02013503          	ld	a0,32(sp)
    80003a3c:	00b13c23          	sd	a1,24(sp)
    80003a40:	19813583          	ld	a1,408(sp)
    80003a44:	0105b583          	ld	a1,16(a1)
    80003a48:	ffffc097          	auipc	ra,0xffffc
    80003a4c:	79c080e7          	jalr	1948(ra) # 800001e4 <ubsan_rt.TypeDescriptor.getName>
    80003a50:	01813683          	ld	a3,24(sp)
    80003a54:	00050613          	mv	a2,a0
    80003a58:	02013503          	ld	a0,32(sp)
    80003a5c:	02c13423          	sd	a2,40(sp)
    80003a60:	00058613          	mv	a2,a1
    80003a64:	02813583          	ld	a1,40(sp)
    80003a68:	1f813703          	ld	a4,504(sp)
    80003a6c:	20e13423          	sd	a4,520(sp)
    80003a70:	1f013703          	ld	a4,496(sp)
    80003a74:	20e13023          	sd	a4,512(sp)
    80003a78:	20d13823          	sd	a3,528(sp)
    80003a7c:	22c13023          	sd	a2,544(sp)
    80003a80:	20b13c23          	sd	a1,536(sp)
    80003a84:	1e010593          	addi	a1,sp,480
    80003a88:	20010613          	addi	a2,sp,512
    80003a8c:	00000097          	auipc	ra,0x0
    80003a90:	45c080e7          	jalr	1116(ra) # 80003ee8 <debug.panicExtra__anon_2511>
    80003a94:	06013503          	ld	a0,96(sp)
    80003a98:	22a13423          	sd	a0,552(sp)
    80003a9c:	00100513          	li	a0,1
    80003aa0:	22a10823          	sb	a0,560(sp)
    80003aa4:	1a813503          	ld	a0,424(sp)
    80003aa8:	24a13023          	sd	a0,576(sp)
    80003aac:	1a013503          	ld	a0,416(sp)
    80003ab0:	22a13c23          	sd	a0,568(sp)
    80003ab4:	18010513          	addi	a0,sp,384
    80003ab8:	22810593          	addi	a1,sp,552
    80003abc:	23810613          	addi	a2,sp,568
    80003ac0:	00000097          	auipc	ra,0x0
    80003ac4:	624080e7          	jalr	1572(ra) # 800040e4 <debug.panicExtra__anon_2516>
    80003ac8:	06013503          	ld	a0,96(sp)
    80003acc:	24a13423          	sd	a0,584(sp)
    80003ad0:	00100513          	li	a0,1
    80003ad4:	24a10823          	sb	a0,592(sp)
    80003ad8:	1a813503          	ld	a0,424(sp)
    80003adc:	26a13023          	sd	a0,608(sp)
    80003ae0:	1a013503          	ld	a0,416(sp)
    80003ae4:	24a13c23          	sd	a0,600(sp)
    80003ae8:	1b813503          	ld	a0,440(sp)
    80003aec:	26a13823          	sd	a0,624(sp)
    80003af0:	1b013503          	ld	a0,432(sp)
    80003af4:	26a13423          	sd	a0,616(sp)
    80003af8:	19813503          	ld	a0,408(sp)
    80003afc:	01053583          	ld	a1,16(a0)
    80003b00:	18010513          	addi	a0,sp,384
    80003b04:	00a13423          	sd	a0,8(sp)
    80003b08:	ffffc097          	auipc	ra,0xffffc
    80003b0c:	6dc080e7          	jalr	1756(ra) # 800001e4 <ubsan_rt.TypeDescriptor.getName>
    80003b10:	00050613          	mv	a2,a0
    80003b14:	00813503          	ld	a0,8(sp)
    80003b18:	00c13823          	sd	a2,16(sp)
    80003b1c:	00058613          	mv	a2,a1
    80003b20:	01013583          	ld	a1,16(sp)
    80003b24:	26013683          	ld	a3,608(sp)
    80003b28:	28d13023          	sd	a3,640(sp)
    80003b2c:	25813683          	ld	a3,600(sp)
    80003b30:	26d13c23          	sd	a3,632(sp)
    80003b34:	27013683          	ld	a3,624(sp)
    80003b38:	28d13823          	sd	a3,656(sp)
    80003b3c:	26813683          	ld	a3,616(sp)
    80003b40:	28d13423          	sd	a3,648(sp)
    80003b44:	2ac13023          	sd	a2,672(sp)
    80003b48:	28b13c23          	sd	a1,664(sp)
    80003b4c:	24810593          	addi	a1,sp,584
    80003b50:	27810613          	addi	a2,sp,632
    80003b54:	00000097          	auipc	ra,0x0
    80003b58:	78c080e7          	jalr	1932(ra) # 800042e0 <debug.panicExtra__anon_2523>

0000000080003b5c <ubsan_rt.Value.isNegative>:
    80003b5c:	fd010113          	addi	sp,sp,-48
    80003b60:	02113423          	sd	ra,40(sp)
    80003b64:	00a13823          	sd	a0,16(sp)
    80003b68:	0085b603          	ld	a2,8(a1)
    80003b6c:	02c13023          	sd	a2,32(sp)
    80003b70:	0005b583          	ld	a1,0(a1)
    80003b74:	00b13c23          	sd	a1,24(sp)
    80003b78:	01813583          	ld	a1,24(sp)
    80003b7c:	ffffc097          	auipc	ra,0xffffc
    80003b80:	62c080e7          	jalr	1580(ra) # 800001a8 <ubsan_rt.TypeDescriptor.isSigned>
    80003b84:	00157513          	andi	a0,a0,1
    80003b88:	00051c63          	bnez	a0,80003ba0 <ubsan_rt.Value.isNegative+0x44>
    80003b8c:	0300006f          	j	80003bbc <ubsan_rt.Value.isNegative+0x60>
    80003b90:	00813503          	ld	a0,8(sp)
    80003b94:	02813083          	ld	ra,40(sp)
    80003b98:	03010113          	addi	sp,sp,48
    80003b9c:	00008067          	ret
    80003ba0:	01013503          	ld	a0,16(sp)
    80003ba4:	01810593          	addi	a1,sp,24
    80003ba8:	00003097          	auipc	ra,0x3
    80003bac:	b50080e7          	jalr	-1200(ra) # 800066f8 <ubsan_rt.Value.getSignedInteger>
    80003bb0:	03f5d513          	srli	a0,a1,0x3f
    80003bb4:	00a13423          	sd	a0,8(sp)
    80003bb8:	fd9ff06f          	j	80003b90 <ubsan_rt.Value.isNegative+0x34>
    80003bbc:	00000513          	li	a0,0
    80003bc0:	00a13423          	sd	a0,8(sp)
    80003bc4:	fcdff06f          	j	80003b90 <ubsan_rt.Value.isNegative+0x34>

0000000080003bc8 <ubsan_rt.Value.getPositiveInteger>:
    80003bc8:	fb010113          	addi	sp,sp,-80
    80003bcc:	04113423          	sd	ra,72(sp)
    80003bd0:	00a13c23          	sd	a0,24(sp)
    80003bd4:	0085b603          	ld	a2,8(a1)
    80003bd8:	02c13423          	sd	a2,40(sp)
    80003bdc:	0005b583          	ld	a1,0(a1)
    80003be0:	02b13023          	sd	a1,32(sp)
    80003be4:	02013583          	ld	a1,32(sp)
    80003be8:	ffffc097          	auipc	ra,0xffffc
    80003bec:	5c0080e7          	jalr	1472(ra) # 800001a8 <ubsan_rt.TypeDescriptor.isSigned>
    80003bf0:	00157513          	andi	a0,a0,1
    80003bf4:	04050c63          	beqz	a0,80003c4c <ubsan_rt.Value.getPositiveInteger+0x84>
    80003bf8:	0040006f          	j	80003bfc <ubsan_rt.Value.getPositiveInteger+0x34>
    80003bfc:	01813503          	ld	a0,24(sp)
    80003c00:	02010593          	addi	a1,sp,32
    80003c04:	00003097          	auipc	ra,0x3
    80003c08:	af4080e7          	jalr	-1292(ra) # 800066f8 <ubsan_rt.Value.getSignedInteger>
    80003c0c:	00050613          	mv	a2,a0
    80003c10:	01813503          	ld	a0,24(sp)
    80003c14:	00b13823          	sd	a1,16(sp)
    80003c18:	00058693          	mv	a3,a1
    80003c1c:	00d13023          	sd	a3,0(sp)
    80003c20:	00060693          	mv	a3,a2
    80003c24:	00d13423          	sd	a3,8(sp)
    80003c28:	02b13c23          	sd	a1,56(sp)
    80003c2c:	02c13823          	sd	a2,48(sp)
    80003c30:	0005a593          	slti	a1,a1,0
    80003c34:	0015c593          	xori	a1,a1,1
    80003c38:	00004097          	auipc	ra,0x4
    80003c3c:	e24080e7          	jalr	-476(ra) # 80007a5c <debug.assert>
    80003c40:	01013583          	ld	a1,16(sp)
    80003c44:	0205d863          	bgez	a1,80003c74 <ubsan_rt.Value.getPositiveInteger+0xac>
    80003c48:	0200006f          	j	80003c68 <ubsan_rt.Value.getPositiveInteger+0xa0>
    80003c4c:	01813503          	ld	a0,24(sp)
    80003c50:	02010593          	addi	a1,sp,32
    80003c54:	00004097          	auipc	ra,0x4
    80003c58:	e38080e7          	jalr	-456(ra) # 80007a8c <ubsan_rt.Value.getUnsignedInteger>
    80003c5c:	04813083          	ld	ra,72(sp)
    80003c60:	05010113          	addi	sp,sp,80
    80003c64:	00008067          	ret
    80003c68:	01813503          	ld	a0,24(sp)
    80003c6c:	ffffd097          	auipc	ra,0xffffd
    80003c70:	10c080e7          	jalr	268(ra) # 80000d78 <debug.FullPanic((function 'panicHandler')).integerOutOfBounds>
    80003c74:	00013583          	ld	a1,0(sp)
    80003c78:	00813503          	ld	a0,8(sp)
    80003c7c:	04813083          	ld	ra,72(sp)
    80003c80:	05010113          	addi	sp,sp,80
    80003c84:	00008067          	ret

0000000080003c88 <ubsan_rt.TypeDescriptor.getIntegerSize>:
    80003c88:	fd010113          	addi	sp,sp,-48
    80003c8c:	02113423          	sd	ra,40(sp)
    80003c90:	00b13823          	sd	a1,16(sp)
    80003c94:	00a13423          	sd	a0,8(sp)
    80003c98:	0005d583          	lhu	a1,0(a1)
    80003c9c:	0015b593          	seqz	a1,a1
    80003ca0:	00004097          	auipc	ra,0x4
    80003ca4:	dbc080e7          	jalr	-580(ra) # 80007a5c <debug.assert>
    80003ca8:	01013583          	ld	a1,16(sp)
    80003cac:	0025d503          	lhu	a0,2(a1)
    80003cb0:	00155513          	srli	a0,a0,0x1
    80003cb4:	00a13c23          	sd	a0,24(sp)
    80003cb8:	02a11323          	sh	a0,38(sp)
    80003cbc:	04000593          	li	a1,64
    80003cc0:	00b56a63          	bltu	a0,a1,80003cd4 <ubsan_rt.TypeDescriptor.getIntegerSize+0x4c>
    80003cc4:	0040006f          	j	80003cc8 <ubsan_rt.TypeDescriptor.getIntegerSize+0x40>
    80003cc8:	00813503          	ld	a0,8(sp)
    80003ccc:	ffffd097          	auipc	ra,0xffffd
    80003cd0:	0ac080e7          	jalr	172(ra) # 80000d78 <debug.FullPanic((function 'panicHandler')).integerOutOfBounds>
    80003cd4:	01813583          	ld	a1,24(sp)
    80003cd8:	00100513          	li	a0,1
    80003cdc:	00b51533          	sll	a0,a0,a1
    80003ce0:	02813083          	ld	ra,40(sp)
    80003ce4:	03010113          	addi	sp,sp,48
    80003ce8:	00008067          	ret

0000000080003cec <debug.panicExtra__anon_2504>:
    80003cec:	81010113          	addi	sp,sp,-2032
    80003cf0:	7e113423          	sd	ra,2024(sp)
    80003cf4:	80010113          	addi	sp,sp,-2048
    80003cf8:	f1010113          	addi	sp,sp,-240
    80003cfc:	000016b7          	lui	a3,0x1
    80003d00:	0906869b          	addiw	a3,a3,144 # 1090 <.Lline_table_start0+0xfe2>
    80003d04:	00d106b3          	add	a3,sp,a3
    80003d08:	02d13823          	sd	a3,48(sp)
    80003d0c:	02c13c23          	sd	a2,56(sp)
    80003d10:	04b13023          	sd	a1,64(sp)
    80003d14:	04a13423          	sd	a0,72(sp)
    80003d18:	00053503          	ld	a0,0(a0)
    80003d1c:	04a13823          	sd	a0,80(sp)

0000000080003d20 <.Lpcrel_hi93>:
    80003d20:	00048517          	auipc	a0,0x48
    80003d24:	51e50513          	addi	a0,a0,1310 # 8004c23e <__anon_2639>
    80003d28:	06a13023          	sd	a0,96(sp)
    80003d2c:	00001537          	lui	a0,0x1
    80003d30:	00f5061b          	addiw	a2,a0,15 # 100f <.Lline_table_start0+0xf61>
    80003d34:	06910513          	addi	a0,sp,105
    80003d38:	04a13c23          	sd	a0,88(sp)
    80003d3c:	0aa00593          	li	a1,170
    80003d40:	0003b097          	auipc	ra,0x3b
    80003d44:	040080e7          	jalr	64(ra) # 8003ed80 <memset>
    80003d48:	00100513          	li	a0,1
    80003d4c:	06051a63          	bnez	a0,80003dc0 <.Lpcrel_hi93+0xa0>
    80003d50:	0740006f          	j	80003dc4 <.Lpcrel_hi93+0xa4>
    80003d54:	04813583          	ld	a1,72(sp)
    80003d58:	05813603          	ld	a2,88(sp)
    80003d5c:	00001537          	lui	a0,0x1
    80003d60:	0985051b          	addiw	a0,a0,152 # 1098 <.Lline_table_start0+0xfea>
    80003d64:	00a10533          	add	a0,sp,a0
    80003d68:	000016b7          	lui	a3,0x1
    80003d6c:	00002097          	auipc	ra,0x2
    80003d70:	93c080e7          	jalr	-1732(ra) # 800056a8 <Io.Writer.fixed>
    80003d74:	03013683          	ld	a3,48(sp)
    80003d78:	04813503          	ld	a0,72(sp)
    80003d7c:	03813603          	ld	a2,56(sp)
    80003d80:	0206b583          	ld	a1,32(a3) # 1020 <.Lline_table_start0+0xf72>
    80003d84:	00b6b023          	sd	a1,0(a3)
    80003d88:	0186b583          	ld	a1,24(a3)
    80003d8c:	feb6bc23          	sd	a1,-8(a3)
    80003d90:	0106b583          	ld	a1,16(a3)
    80003d94:	feb6b823          	sd	a1,-16(a3)
    80003d98:	0086b583          	ld	a1,8(a3)
    80003d9c:	feb6b423          	sd	a1,-24(a3)
    80003da0:	000015b7          	lui	a1,0x1
    80003da4:	0785859b          	addiw	a1,a1,120 # 1078 <.Lline_table_start0+0xfca>
    80003da8:	00b105b3          	add	a1,sp,a1
    80003dac:	00004097          	auipc	ra,0x4
    80003db0:	e1c080e7          	jalr	-484(ra) # 80007bc8 <Io.Writer.print__anon_2868>
    80003db4:	03051513          	slli	a0,a0,0x30
    80003db8:	04050a63          	beqz	a0,80003e0c <.Lpcrel_hi93+0xec>
    80003dbc:	0740006f          	j	80003e30 <.Lpcrel_hi93+0x110>
    80003dc0:	f95ff06f          	j	80003d54 <.Lpcrel_hi93+0x34>
    80003dc4:	04813503          	ld	a0,72(sp)
    80003dc8:	000015b7          	lui	a1,0x1
    80003dcc:	00f5861b          	addiw	a2,a1,15 # 100f <.Lline_table_start0+0xf61>
    80003dd0:	00002097          	auipc	ra,0x2
    80003dd4:	8a8080e7          	jalr	-1880(ra) # 80005678 <debug.FullPanic((function 'panicHandler')).outOfBounds>
    80003dd8:	04013683          	ld	a3,64(sp)
    80003ddc:	04813503          	ld	a0,72(sp)
    80003de0:	03013583          	ld	a1,48(sp)
    80003de4:	02813603          	ld	a2,40(sp)
    80003de8:	02013703          	ld	a4,32(sp)
    80003dec:	02c5b423          	sd	a2,40(a1)
    80003df0:	02e5b823          	sd	a4,48(a1)
    80003df4:	04e5b023          	sd	a4,64(a1)
    80003df8:	02c5bc23          	sd	a2,56(a1)
    80003dfc:	0405b603          	ld	a2,64(a1)
    80003e00:	0385b583          	ld	a1,56(a1)
    80003e04:	00002097          	auipc	ra,0x2
    80003e08:	c4c080e7          	jalr	-948(ra) # 80005a50 <main.panicHandler>
    80003e0c:	04813503          	ld	a0,72(sp)
    80003e10:	000015b7          	lui	a1,0x1
    80003e14:	0785859b          	addiw	a1,a1,120 # 1078 <.Lline_table_start0+0xfca>
    80003e18:	00b105b3          	add	a1,sp,a1
    80003e1c:	00002097          	auipc	ra,0x2
    80003e20:	b50080e7          	jalr	-1200(ra) # 8000596c <Io.Writer.buffered>
    80003e24:	02a13423          	sd	a0,40(sp)
    80003e28:	02b13023          	sd	a1,32(sp)
    80003e2c:	fadff06f          	j	80003dd8 <.Lpcrel_hi93+0xb8>
    80003e30:	000015b7          	lui	a1,0x1
    80003e34:	06910513          	addi	a0,sp,105
    80003e38:	00b50533          	add	a0,a0,a1
    80003e3c:	00a13c23          	sd	a0,24(sp)
    80003e40:	00100513          	li	a0,1
    80003e44:	02051e63          	bnez	a0,80003e80 <.Lpcrel_hi95+0x10>
    80003e48:	03c0006f          	j	80003e84 <.Lpcrel_hi95+0x14>
    80003e4c:	01813503          	ld	a0,24(sp)
    80003e50:	00f50593          	addi	a1,a0,15
    80003e54:	00b13823          	sd	a1,16(sp)

0000000080003e58 <.Lpcrel_hi94>:
    80003e58:	00048597          	auipc	a1,0x48
    80003e5c:	3e658593          	addi	a1,a1,998 # 8004c23e <__anon_2639>
    80003e60:	00f58593          	addi	a1,a1,15
    80003e64:	06b57a63          	bgeu	a0,a1,80003ed8 <.Lpcrel_hi96+0x38>
    80003e68:	0040006f          	j	80003e6c <.Lpcrel_hi94+0x14>
    80003e6c:	01013583          	ld	a1,16(sp)

0000000080003e70 <.Lpcrel_hi95>:
    80003e70:	00048517          	auipc	a0,0x48
    80003e74:	3ce50513          	addi	a0,a0,974 # 8004c23e <__anon_2639>
    80003e78:	06b57063          	bgeu	a0,a1,80003ed8 <.Lpcrel_hi96+0x38>
    80003e7c:	0600006f          	j	80003edc <.Lpcrel_hi96+0x3c>
    80003e80:	fcdff06f          	j	80003e4c <.Lpcrel_hi93+0x12c>
    80003e84:	04813503          	ld	a0,72(sp)
    80003e88:	000015b7          	lui	a1,0x1
    80003e8c:	00f5861b          	addiw	a2,a1,15 # 100f <.Lline_table_start0+0xf61>
    80003e90:	00060593          	mv	a1,a2
    80003e94:	00001097          	auipc	ra,0x1
    80003e98:	7e4080e7          	jalr	2020(ra) # 80005678 <debug.FullPanic((function 'panicHandler')).outOfBounds>
    80003e9c:	01813503          	ld	a0,24(sp)

0000000080003ea0 <.Lpcrel_hi96>:
    80003ea0:	00048597          	auipc	a1,0x48
    80003ea4:	39e58593          	addi	a1,a1,926 # 8004c23e <__anon_2639>
    80003ea8:	00f00613          	li	a2,15
    80003eac:	0003b097          	auipc	ra,0x3b
    80003eb0:	cdc080e7          	jalr	-804(ra) # 8003eb88 <memcpy>
    80003eb4:	04813583          	ld	a1,72(sp)
    80003eb8:	05013503          	ld	a0,80(sp)
    80003ebc:	00a5b023          	sd	a0,0(a1)
    80003ec0:	06910593          	addi	a1,sp,105
    80003ec4:	00001537          	lui	a0,0x1
    80003ec8:	00f5051b          	addiw	a0,a0,15 # 100f <.Lline_table_start0+0xf61>
    80003ecc:	02b13423          	sd	a1,40(sp)
    80003ed0:	02a13023          	sd	a0,32(sp)
    80003ed4:	f05ff06f          	j	80003dd8 <.Lpcrel_hi93+0xb8>
    80003ed8:	fc5ff06f          	j	80003e9c <.Lpcrel_hi95+0x2c>
    80003edc:	04813503          	ld	a0,72(sp)
    80003ee0:	00002097          	auipc	ra,0x2
    80003ee4:	b48080e7          	jalr	-1208(ra) # 80005a28 <debug.FullPanic((function 'panicHandler')).memcpyAlias>

0000000080003ee8 <debug.panicExtra__anon_2511>:
    80003ee8:	81010113          	addi	sp,sp,-2032
    80003eec:	7e113423          	sd	ra,2024(sp)
    80003ef0:	80010113          	addi	sp,sp,-2048
    80003ef4:	f1010113          	addi	sp,sp,-240
    80003ef8:	000016b7          	lui	a3,0x1
    80003efc:	0906869b          	addiw	a3,a3,144 # 1090 <.Lline_table_start0+0xfe2>
    80003f00:	00d106b3          	add	a3,sp,a3
    80003f04:	02d13823          	sd	a3,48(sp)
    80003f08:	02c13c23          	sd	a2,56(sp)
    80003f0c:	04b13023          	sd	a1,64(sp)
    80003f10:	04a13423          	sd	a0,72(sp)
    80003f14:	00053503          	ld	a0,0(a0)
    80003f18:	04a13823          	sd	a0,80(sp)

0000000080003f1c <.Lpcrel_hi97>:
    80003f1c:	00048517          	auipc	a0,0x48
    80003f20:	32250513          	addi	a0,a0,802 # 8004c23e <__anon_2639>
    80003f24:	06a13023          	sd	a0,96(sp)
    80003f28:	00001537          	lui	a0,0x1
    80003f2c:	00f5061b          	addiw	a2,a0,15 # 100f <.Lline_table_start0+0xf61>
    80003f30:	06910513          	addi	a0,sp,105
    80003f34:	04a13c23          	sd	a0,88(sp)
    80003f38:	0aa00593          	li	a1,170
    80003f3c:	0003b097          	auipc	ra,0x3b
    80003f40:	e44080e7          	jalr	-444(ra) # 8003ed80 <memset>
    80003f44:	00100513          	li	a0,1
    80003f48:	06051a63          	bnez	a0,80003fbc <.Lpcrel_hi97+0xa0>
    80003f4c:	0740006f          	j	80003fc0 <.Lpcrel_hi97+0xa4>
    80003f50:	04813583          	ld	a1,72(sp)
    80003f54:	05813603          	ld	a2,88(sp)
    80003f58:	00001537          	lui	a0,0x1
    80003f5c:	0985051b          	addiw	a0,a0,152 # 1098 <.Lline_table_start0+0xfea>
    80003f60:	00a10533          	add	a0,sp,a0
    80003f64:	000016b7          	lui	a3,0x1
    80003f68:	00001097          	auipc	ra,0x1
    80003f6c:	740080e7          	jalr	1856(ra) # 800056a8 <Io.Writer.fixed>
    80003f70:	03013683          	ld	a3,48(sp)
    80003f74:	04813503          	ld	a0,72(sp)
    80003f78:	03813603          	ld	a2,56(sp)
    80003f7c:	0206b583          	ld	a1,32(a3) # 1020 <.Lline_table_start0+0xf72>
    80003f80:	00b6b023          	sd	a1,0(a3)
    80003f84:	0186b583          	ld	a1,24(a3)
    80003f88:	feb6bc23          	sd	a1,-8(a3)
    80003f8c:	0106b583          	ld	a1,16(a3)
    80003f90:	feb6b823          	sd	a1,-16(a3)
    80003f94:	0086b583          	ld	a1,8(a3)
    80003f98:	feb6b423          	sd	a1,-24(a3)
    80003f9c:	000015b7          	lui	a1,0x1
    80003fa0:	0785859b          	addiw	a1,a1,120 # 1078 <.Lline_table_start0+0xfca>
    80003fa4:	00b105b3          	add	a1,sp,a1
    80003fa8:	00004097          	auipc	ra,0x4
    80003fac:	d40080e7          	jalr	-704(ra) # 80007ce8 <Io.Writer.print__anon_2870>
    80003fb0:	03051513          	slli	a0,a0,0x30
    80003fb4:	04050a63          	beqz	a0,80004008 <.Lpcrel_hi97+0xec>
    80003fb8:	0740006f          	j	8000402c <.Lpcrel_hi97+0x110>
    80003fbc:	f95ff06f          	j	80003f50 <.Lpcrel_hi97+0x34>
    80003fc0:	04813503          	ld	a0,72(sp)
    80003fc4:	000015b7          	lui	a1,0x1
    80003fc8:	00f5861b          	addiw	a2,a1,15 # 100f <.Lline_table_start0+0xf61>
    80003fcc:	00001097          	auipc	ra,0x1
    80003fd0:	6ac080e7          	jalr	1708(ra) # 80005678 <debug.FullPanic((function 'panicHandler')).outOfBounds>
    80003fd4:	04013683          	ld	a3,64(sp)
    80003fd8:	04813503          	ld	a0,72(sp)
    80003fdc:	03013583          	ld	a1,48(sp)
    80003fe0:	02813603          	ld	a2,40(sp)
    80003fe4:	02013703          	ld	a4,32(sp)
    80003fe8:	02c5b423          	sd	a2,40(a1)
    80003fec:	02e5b823          	sd	a4,48(a1)
    80003ff0:	04e5b023          	sd	a4,64(a1)
    80003ff4:	02c5bc23          	sd	a2,56(a1)
    80003ff8:	0405b603          	ld	a2,64(a1)
    80003ffc:	0385b583          	ld	a1,56(a1)
    80004000:	00002097          	auipc	ra,0x2
    80004004:	a50080e7          	jalr	-1456(ra) # 80005a50 <main.panicHandler>
    80004008:	04813503          	ld	a0,72(sp)
    8000400c:	000015b7          	lui	a1,0x1
    80004010:	0785859b          	addiw	a1,a1,120 # 1078 <.Lline_table_start0+0xfca>
    80004014:	00b105b3          	add	a1,sp,a1
    80004018:	00002097          	auipc	ra,0x2
    8000401c:	954080e7          	jalr	-1708(ra) # 8000596c <Io.Writer.buffered>
    80004020:	02a13423          	sd	a0,40(sp)
    80004024:	02b13023          	sd	a1,32(sp)
    80004028:	fadff06f          	j	80003fd4 <.Lpcrel_hi97+0xb8>
    8000402c:	000015b7          	lui	a1,0x1
    80004030:	06910513          	addi	a0,sp,105
    80004034:	00b50533          	add	a0,a0,a1
    80004038:	00a13c23          	sd	a0,24(sp)
    8000403c:	00100513          	li	a0,1
    80004040:	02051e63          	bnez	a0,8000407c <.Lpcrel_hi99+0x10>
    80004044:	03c0006f          	j	80004080 <.Lpcrel_hi99+0x14>
    80004048:	01813503          	ld	a0,24(sp)
    8000404c:	00f50593          	addi	a1,a0,15
    80004050:	00b13823          	sd	a1,16(sp)

0000000080004054 <.Lpcrel_hi98>:
    80004054:	00048597          	auipc	a1,0x48
    80004058:	1ea58593          	addi	a1,a1,490 # 8004c23e <__anon_2639>
    8000405c:	00f58593          	addi	a1,a1,15
    80004060:	06b57a63          	bgeu	a0,a1,800040d4 <.Lpcrel_hi100+0x38>
    80004064:	0040006f          	j	80004068 <.Lpcrel_hi98+0x14>
    80004068:	01013583          	ld	a1,16(sp)

000000008000406c <.Lpcrel_hi99>:
    8000406c:	00048517          	auipc	a0,0x48
    80004070:	1d250513          	addi	a0,a0,466 # 8004c23e <__anon_2639>
    80004074:	06b57063          	bgeu	a0,a1,800040d4 <.Lpcrel_hi100+0x38>
    80004078:	0600006f          	j	800040d8 <.Lpcrel_hi100+0x3c>
    8000407c:	fcdff06f          	j	80004048 <.Lpcrel_hi97+0x12c>
    80004080:	04813503          	ld	a0,72(sp)
    80004084:	000015b7          	lui	a1,0x1
    80004088:	00f5861b          	addiw	a2,a1,15 # 100f <.Lline_table_start0+0xf61>
    8000408c:	00060593          	mv	a1,a2
    80004090:	00001097          	auipc	ra,0x1
    80004094:	5e8080e7          	jalr	1512(ra) # 80005678 <debug.FullPanic((function 'panicHandler')).outOfBounds>
    80004098:	01813503          	ld	a0,24(sp)

000000008000409c <.Lpcrel_hi100>:
    8000409c:	00048597          	auipc	a1,0x48
    800040a0:	1a258593          	addi	a1,a1,418 # 8004c23e <__anon_2639>
    800040a4:	00f00613          	li	a2,15
    800040a8:	0003b097          	auipc	ra,0x3b
    800040ac:	ae0080e7          	jalr	-1312(ra) # 8003eb88 <memcpy>
    800040b0:	04813583          	ld	a1,72(sp)
    800040b4:	05013503          	ld	a0,80(sp)
    800040b8:	00a5b023          	sd	a0,0(a1)
    800040bc:	06910593          	addi	a1,sp,105
    800040c0:	00001537          	lui	a0,0x1
    800040c4:	00f5051b          	addiw	a0,a0,15 # 100f <.Lline_table_start0+0xf61>
    800040c8:	02b13423          	sd	a1,40(sp)
    800040cc:	02a13023          	sd	a0,32(sp)
    800040d0:	f05ff06f          	j	80003fd4 <.Lpcrel_hi97+0xb8>
    800040d4:	fc5ff06f          	j	80004098 <.Lpcrel_hi99+0x2c>
    800040d8:	04813503          	ld	a0,72(sp)
    800040dc:	00002097          	auipc	ra,0x2
    800040e0:	94c080e7          	jalr	-1716(ra) # 80005a28 <debug.FullPanic((function 'panicHandler')).memcpyAlias>

00000000800040e4 <debug.panicExtra__anon_2516>:
    800040e4:	81010113          	addi	sp,sp,-2032
    800040e8:	7e113423          	sd	ra,2024(sp)
    800040ec:	80010113          	addi	sp,sp,-2048
    800040f0:	f1010113          	addi	sp,sp,-240
    800040f4:	000016b7          	lui	a3,0x1
    800040f8:	0906869b          	addiw	a3,a3,144 # 1090 <.Lline_table_start0+0xfe2>
    800040fc:	00d106b3          	add	a3,sp,a3
    80004100:	02d13823          	sd	a3,48(sp)
    80004104:	02c13c23          	sd	a2,56(sp)
    80004108:	04b13023          	sd	a1,64(sp)
    8000410c:	04a13423          	sd	a0,72(sp)
    80004110:	00053503          	ld	a0,0(a0)
    80004114:	04a13823          	sd	a0,80(sp)

0000000080004118 <.Lpcrel_hi101>:
    80004118:	00048517          	auipc	a0,0x48
    8000411c:	12650513          	addi	a0,a0,294 # 8004c23e <__anon_2639>
    80004120:	06a13023          	sd	a0,96(sp)
    80004124:	00001537          	lui	a0,0x1
    80004128:	00f5061b          	addiw	a2,a0,15 # 100f <.Lline_table_start0+0xf61>
    8000412c:	06910513          	addi	a0,sp,105
    80004130:	04a13c23          	sd	a0,88(sp)
    80004134:	0aa00593          	li	a1,170
    80004138:	0003b097          	auipc	ra,0x3b
    8000413c:	c48080e7          	jalr	-952(ra) # 8003ed80 <memset>
    80004140:	00100513          	li	a0,1
    80004144:	06051a63          	bnez	a0,800041b8 <.Lpcrel_hi101+0xa0>
    80004148:	0740006f          	j	800041bc <.Lpcrel_hi101+0xa4>
    8000414c:	04813583          	ld	a1,72(sp)
    80004150:	05813603          	ld	a2,88(sp)
    80004154:	00001537          	lui	a0,0x1
    80004158:	0985051b          	addiw	a0,a0,152 # 1098 <.Lline_table_start0+0xfea>
    8000415c:	00a10533          	add	a0,sp,a0
    80004160:	000016b7          	lui	a3,0x1
    80004164:	00001097          	auipc	ra,0x1
    80004168:	544080e7          	jalr	1348(ra) # 800056a8 <Io.Writer.fixed>
    8000416c:	03013683          	ld	a3,48(sp)
    80004170:	04813503          	ld	a0,72(sp)
    80004174:	03813603          	ld	a2,56(sp)
    80004178:	0206b583          	ld	a1,32(a3) # 1020 <.Lline_table_start0+0xf72>
    8000417c:	00b6b023          	sd	a1,0(a3)
    80004180:	0186b583          	ld	a1,24(a3)
    80004184:	feb6bc23          	sd	a1,-8(a3)
    80004188:	0106b583          	ld	a1,16(a3)
    8000418c:	feb6b823          	sd	a1,-16(a3)
    80004190:	0086b583          	ld	a1,8(a3)
    80004194:	feb6b423          	sd	a1,-24(a3)
    80004198:	000015b7          	lui	a1,0x1
    8000419c:	0785859b          	addiw	a1,a1,120 # 1078 <.Lline_table_start0+0xfca>
    800041a0:	00b105b3          	add	a1,sp,a1
    800041a4:	00004097          	auipc	ra,0x4
    800041a8:	d74080e7          	jalr	-652(ra) # 80007f18 <Io.Writer.print__anon_2871>
    800041ac:	03051513          	slli	a0,a0,0x30
    800041b0:	04050a63          	beqz	a0,80004204 <.Lpcrel_hi101+0xec>
    800041b4:	0740006f          	j	80004228 <.Lpcrel_hi101+0x110>
    800041b8:	f95ff06f          	j	8000414c <.Lpcrel_hi101+0x34>
    800041bc:	04813503          	ld	a0,72(sp)
    800041c0:	000015b7          	lui	a1,0x1
    800041c4:	00f5861b          	addiw	a2,a1,15 # 100f <.Lline_table_start0+0xf61>
    800041c8:	00001097          	auipc	ra,0x1
    800041cc:	4b0080e7          	jalr	1200(ra) # 80005678 <debug.FullPanic((function 'panicHandler')).outOfBounds>
    800041d0:	04013683          	ld	a3,64(sp)
    800041d4:	04813503          	ld	a0,72(sp)
    800041d8:	03013583          	ld	a1,48(sp)
    800041dc:	02813603          	ld	a2,40(sp)
    800041e0:	02013703          	ld	a4,32(sp)
    800041e4:	02c5b423          	sd	a2,40(a1)
    800041e8:	02e5b823          	sd	a4,48(a1)
    800041ec:	04e5b023          	sd	a4,64(a1)
    800041f0:	02c5bc23          	sd	a2,56(a1)
    800041f4:	0405b603          	ld	a2,64(a1)
    800041f8:	0385b583          	ld	a1,56(a1)
    800041fc:	00002097          	auipc	ra,0x2
    80004200:	854080e7          	jalr	-1964(ra) # 80005a50 <main.panicHandler>
    80004204:	04813503          	ld	a0,72(sp)
    80004208:	000015b7          	lui	a1,0x1
    8000420c:	0785859b          	addiw	a1,a1,120 # 1078 <.Lline_table_start0+0xfca>
    80004210:	00b105b3          	add	a1,sp,a1
    80004214:	00001097          	auipc	ra,0x1
    80004218:	758080e7          	jalr	1880(ra) # 8000596c <Io.Writer.buffered>
    8000421c:	02a13423          	sd	a0,40(sp)
    80004220:	02b13023          	sd	a1,32(sp)
    80004224:	fadff06f          	j	800041d0 <.Lpcrel_hi101+0xb8>
    80004228:	000015b7          	lui	a1,0x1
    8000422c:	06910513          	addi	a0,sp,105
    80004230:	00b50533          	add	a0,a0,a1
    80004234:	00a13c23          	sd	a0,24(sp)
    80004238:	00100513          	li	a0,1
    8000423c:	02051e63          	bnez	a0,80004278 <.Lpcrel_hi103+0x10>
    80004240:	03c0006f          	j	8000427c <.Lpcrel_hi103+0x14>
    80004244:	01813503          	ld	a0,24(sp)
    80004248:	00f50593          	addi	a1,a0,15
    8000424c:	00b13823          	sd	a1,16(sp)

0000000080004250 <.Lpcrel_hi102>:
    80004250:	00048597          	auipc	a1,0x48
    80004254:	fee58593          	addi	a1,a1,-18 # 8004c23e <__anon_2639>
    80004258:	00f58593          	addi	a1,a1,15
    8000425c:	06b57a63          	bgeu	a0,a1,800042d0 <.Lpcrel_hi104+0x38>
    80004260:	0040006f          	j	80004264 <.Lpcrel_hi102+0x14>
    80004264:	01013583          	ld	a1,16(sp)

0000000080004268 <.Lpcrel_hi103>:
    80004268:	00048517          	auipc	a0,0x48
    8000426c:	fd650513          	addi	a0,a0,-42 # 8004c23e <__anon_2639>
    80004270:	06b57063          	bgeu	a0,a1,800042d0 <.Lpcrel_hi104+0x38>
    80004274:	0600006f          	j	800042d4 <.Lpcrel_hi104+0x3c>
    80004278:	fcdff06f          	j	80004244 <.Lpcrel_hi101+0x12c>
    8000427c:	04813503          	ld	a0,72(sp)
    80004280:	000015b7          	lui	a1,0x1
    80004284:	00f5861b          	addiw	a2,a1,15 # 100f <.Lline_table_start0+0xf61>
    80004288:	00060593          	mv	a1,a2
    8000428c:	00001097          	auipc	ra,0x1
    80004290:	3ec080e7          	jalr	1004(ra) # 80005678 <debug.FullPanic((function 'panicHandler')).outOfBounds>
    80004294:	01813503          	ld	a0,24(sp)

0000000080004298 <.Lpcrel_hi104>:
    80004298:	00048597          	auipc	a1,0x48
    8000429c:	fa658593          	addi	a1,a1,-90 # 8004c23e <__anon_2639>
    800042a0:	00f00613          	li	a2,15
    800042a4:	0003b097          	auipc	ra,0x3b
    800042a8:	8e4080e7          	jalr	-1820(ra) # 8003eb88 <memcpy>
    800042ac:	04813583          	ld	a1,72(sp)
    800042b0:	05013503          	ld	a0,80(sp)
    800042b4:	00a5b023          	sd	a0,0(a1)
    800042b8:	06910593          	addi	a1,sp,105
    800042bc:	00001537          	lui	a0,0x1
    800042c0:	00f5051b          	addiw	a0,a0,15 # 100f <.Lline_table_start0+0xf61>
    800042c4:	02b13423          	sd	a1,40(sp)
    800042c8:	02a13023          	sd	a0,32(sp)
    800042cc:	f05ff06f          	j	800041d0 <.Lpcrel_hi101+0xb8>
    800042d0:	fc5ff06f          	j	80004294 <.Lpcrel_hi103+0x2c>
    800042d4:	04813503          	ld	a0,72(sp)
    800042d8:	00001097          	auipc	ra,0x1
    800042dc:	750080e7          	jalr	1872(ra) # 80005a28 <debug.FullPanic((function 'panicHandler')).memcpyAlias>

00000000800042e0 <debug.panicExtra__anon_2523>:
    800042e0:	81010113          	addi	sp,sp,-2032
    800042e4:	7e113423          	sd	ra,2024(sp)
    800042e8:	80010113          	addi	sp,sp,-2048
    800042ec:	f1010113          	addi	sp,sp,-240
    800042f0:	000016b7          	lui	a3,0x1
    800042f4:	0906869b          	addiw	a3,a3,144 # 1090 <.Lline_table_start0+0xfe2>
    800042f8:	00d106b3          	add	a3,sp,a3
    800042fc:	02d13823          	sd	a3,48(sp)
    80004300:	02c13c23          	sd	a2,56(sp)
    80004304:	04b13023          	sd	a1,64(sp)
    80004308:	04a13423          	sd	a0,72(sp)
    8000430c:	00053503          	ld	a0,0(a0)
    80004310:	04a13823          	sd	a0,80(sp)

0000000080004314 <.Lpcrel_hi105>:
    80004314:	00048517          	auipc	a0,0x48
    80004318:	f2a50513          	addi	a0,a0,-214 # 8004c23e <__anon_2639>
    8000431c:	06a13023          	sd	a0,96(sp)
    80004320:	00001537          	lui	a0,0x1
    80004324:	00f5061b          	addiw	a2,a0,15 # 100f <.Lline_table_start0+0xf61>
    80004328:	06910513          	addi	a0,sp,105
    8000432c:	04a13c23          	sd	a0,88(sp)
    80004330:	0aa00593          	li	a1,170
    80004334:	0003b097          	auipc	ra,0x3b
    80004338:	a4c080e7          	jalr	-1460(ra) # 8003ed80 <memset>
    8000433c:	00100513          	li	a0,1
    80004340:	06051a63          	bnez	a0,800043b4 <.Lpcrel_hi105+0xa0>
    80004344:	0740006f          	j	800043b8 <.Lpcrel_hi105+0xa4>
    80004348:	04813583          	ld	a1,72(sp)
    8000434c:	05813603          	ld	a2,88(sp)
    80004350:	00001537          	lui	a0,0x1
    80004354:	0985051b          	addiw	a0,a0,152 # 1098 <.Lline_table_start0+0xfea>
    80004358:	00a10533          	add	a0,sp,a0
    8000435c:	000016b7          	lui	a3,0x1
    80004360:	00001097          	auipc	ra,0x1
    80004364:	348080e7          	jalr	840(ra) # 800056a8 <Io.Writer.fixed>
    80004368:	03013683          	ld	a3,48(sp)
    8000436c:	04813503          	ld	a0,72(sp)
    80004370:	03813603          	ld	a2,56(sp)
    80004374:	0206b583          	ld	a1,32(a3) # 1020 <.Lline_table_start0+0xf72>
    80004378:	00b6b023          	sd	a1,0(a3)
    8000437c:	0186b583          	ld	a1,24(a3)
    80004380:	feb6bc23          	sd	a1,-8(a3)
    80004384:	0106b583          	ld	a1,16(a3)
    80004388:	feb6b823          	sd	a1,-16(a3)
    8000438c:	0086b583          	ld	a1,8(a3)
    80004390:	feb6b423          	sd	a1,-24(a3)
    80004394:	000015b7          	lui	a1,0x1
    80004398:	0785859b          	addiw	a1,a1,120 # 1078 <.Lline_table_start0+0xfca>
    8000439c:	00b105b3          	add	a1,sp,a1
    800043a0:	00004097          	auipc	ra,0x4
    800043a4:	c4c080e7          	jalr	-948(ra) # 80007fec <Io.Writer.print__anon_2873>
    800043a8:	03051513          	slli	a0,a0,0x30
    800043ac:	04050a63          	beqz	a0,80004400 <.Lpcrel_hi105+0xec>
    800043b0:	0740006f          	j	80004424 <.Lpcrel_hi105+0x110>
    800043b4:	f95ff06f          	j	80004348 <.Lpcrel_hi105+0x34>
    800043b8:	04813503          	ld	a0,72(sp)
    800043bc:	000015b7          	lui	a1,0x1
    800043c0:	00f5861b          	addiw	a2,a1,15 # 100f <.Lline_table_start0+0xf61>
    800043c4:	00001097          	auipc	ra,0x1
    800043c8:	2b4080e7          	jalr	692(ra) # 80005678 <debug.FullPanic((function 'panicHandler')).outOfBounds>
    800043cc:	04013683          	ld	a3,64(sp)
    800043d0:	04813503          	ld	a0,72(sp)
    800043d4:	03013583          	ld	a1,48(sp)
    800043d8:	02813603          	ld	a2,40(sp)
    800043dc:	02013703          	ld	a4,32(sp)
    800043e0:	02c5b423          	sd	a2,40(a1)
    800043e4:	02e5b823          	sd	a4,48(a1)
    800043e8:	04e5b023          	sd	a4,64(a1)
    800043ec:	02c5bc23          	sd	a2,56(a1)
    800043f0:	0405b603          	ld	a2,64(a1)
    800043f4:	0385b583          	ld	a1,56(a1)
    800043f8:	00001097          	auipc	ra,0x1
    800043fc:	658080e7          	jalr	1624(ra) # 80005a50 <main.panicHandler>
    80004400:	04813503          	ld	a0,72(sp)
    80004404:	000015b7          	lui	a1,0x1
    80004408:	0785859b          	addiw	a1,a1,120 # 1078 <.Lline_table_start0+0xfca>
    8000440c:	00b105b3          	add	a1,sp,a1
    80004410:	00001097          	auipc	ra,0x1
    80004414:	55c080e7          	jalr	1372(ra) # 8000596c <Io.Writer.buffered>
    80004418:	02a13423          	sd	a0,40(sp)
    8000441c:	02b13023          	sd	a1,32(sp)
    80004420:	fadff06f          	j	800043cc <.Lpcrel_hi105+0xb8>
    80004424:	000015b7          	lui	a1,0x1
    80004428:	06910513          	addi	a0,sp,105
    8000442c:	00b50533          	add	a0,a0,a1
    80004430:	00a13c23          	sd	a0,24(sp)
    80004434:	00100513          	li	a0,1
    80004438:	02051e63          	bnez	a0,80004474 <.Lpcrel_hi107+0x10>
    8000443c:	03c0006f          	j	80004478 <.Lpcrel_hi107+0x14>
    80004440:	01813503          	ld	a0,24(sp)
    80004444:	00f50593          	addi	a1,a0,15
    80004448:	00b13823          	sd	a1,16(sp)

000000008000444c <.Lpcrel_hi106>:
    8000444c:	00048597          	auipc	a1,0x48
    80004450:	df258593          	addi	a1,a1,-526 # 8004c23e <__anon_2639>
    80004454:	00f58593          	addi	a1,a1,15
    80004458:	06b57a63          	bgeu	a0,a1,800044cc <.Lpcrel_hi108+0x38>
    8000445c:	0040006f          	j	80004460 <.Lpcrel_hi106+0x14>
    80004460:	01013583          	ld	a1,16(sp)

0000000080004464 <.Lpcrel_hi107>:
    80004464:	00048517          	auipc	a0,0x48
    80004468:	dda50513          	addi	a0,a0,-550 # 8004c23e <__anon_2639>
    8000446c:	06b57063          	bgeu	a0,a1,800044cc <.Lpcrel_hi108+0x38>
    80004470:	0600006f          	j	800044d0 <.Lpcrel_hi108+0x3c>
    80004474:	fcdff06f          	j	80004440 <.Lpcrel_hi105+0x12c>
    80004478:	04813503          	ld	a0,72(sp)
    8000447c:	000015b7          	lui	a1,0x1
    80004480:	00f5861b          	addiw	a2,a1,15 # 100f <.Lline_table_start0+0xf61>
    80004484:	00060593          	mv	a1,a2
    80004488:	00001097          	auipc	ra,0x1
    8000448c:	1f0080e7          	jalr	496(ra) # 80005678 <debug.FullPanic((function 'panicHandler')).outOfBounds>
    80004490:	01813503          	ld	a0,24(sp)

0000000080004494 <.Lpcrel_hi108>:
    80004494:	00048597          	auipc	a1,0x48
    80004498:	daa58593          	addi	a1,a1,-598 # 8004c23e <__anon_2639>
    8000449c:	00f00613          	li	a2,15
    800044a0:	0003a097          	auipc	ra,0x3a
    800044a4:	6e8080e7          	jalr	1768(ra) # 8003eb88 <memcpy>
    800044a8:	04813583          	ld	a1,72(sp)
    800044ac:	05013503          	ld	a0,80(sp)
    800044b0:	00a5b023          	sd	a0,0(a1)
    800044b4:	06910593          	addi	a1,sp,105
    800044b8:	00001537          	lui	a0,0x1
    800044bc:	00f5051b          	addiw	a0,a0,15 # 100f <.Lline_table_start0+0xf61>
    800044c0:	02b13423          	sd	a1,40(sp)
    800044c4:	02a13023          	sd	a0,32(sp)
    800044c8:	f05ff06f          	j	800043cc <.Lpcrel_hi105+0xb8>
    800044cc:	fc5ff06f          	j	80004490 <.Lpcrel_hi107+0x2c>
    800044d0:	04813503          	ld	a0,72(sp)
    800044d4:	00001097          	auipc	ra,0x1
    800044d8:	554080e7          	jalr	1364(ra) # 80005a28 <debug.FullPanic((function 'panicHandler')).memcpyAlias>

00000000800044dc <__ubsan_handle_shift_out_of_bounds_abort>:
    800044dc:	fe010113          	addi	sp,sp,-32
    800044e0:	00a13423          	sd	a0,8(sp)
    800044e4:	00b13823          	sd	a1,16(sp)
    800044e8:	00c13c23          	sd	a2,24(sp)
    800044ec:	fffff097          	auipc	ra,0xfffff
    800044f0:	3b4080e7          	jalr	948(ra) # 800038a0 <__ubsan_handle_shift_out_of_bounds>

00000000800044f4 <__ubsan_handle_type_mismatch_v1>:
    800044f4:	d9010113          	addi	sp,sp,-624
    800044f8:	26113423          	sd	ra,616(sp)
    800044fc:	06113423          	sd	ra,104(sp)
    80004500:	06b13823          	sd	a1,112(sp)
    80004504:	08a13023          	sd	a0,128(sp)
    80004508:	08b13423          	sd	a1,136(sp)
    8000450c:	02000593          	li	a1,32
    80004510:	1ab13023          	sd	a1,416(sp)
    80004514:	09010593          	addi	a1,sp,144
    80004518:	18b13c23          	sd	a1,408(sp)
    8000451c:	00000593          	li	a1,0
    80004520:	18b13823          	sd	a1,400(sp)
    80004524:	1aa13423          	sd	a0,424(sp)
    80004528:	01854503          	lbu	a0,24(a0)
    8000452c:	06a13c23          	sd	a0,120(sp)
    80004530:	04000593          	li	a1,64
    80004534:	00b56a63          	bltu	a0,a1,80004548 <__ubsan_handle_type_mismatch_v1+0x54>
    80004538:	0040006f          	j	8000453c <__ubsan_handle_type_mismatch_v1+0x48>
    8000453c:	19010513          	addi	a0,sp,400
    80004540:	ffffd097          	auipc	ra,0xffffd
    80004544:	838080e7          	jalr	-1992(ra) # 80000d78 <debug.FullPanic((function 'panicHandler')).integerOutOfBounds>
    80004548:	07013503          	ld	a0,112(sp)
    8000454c:	07813603          	ld	a2,120(sp)
    80004550:	00100593          	li	a1,1
    80004554:	00c595b3          	sll	a1,a1,a2
    80004558:	04b13c23          	sd	a1,88(sp)
    8000455c:	1ab13823          	sd	a1,432(sp)
    80004560:	00050593          	mv	a1,a0
    80004564:	06b13023          	sd	a1,96(sp)
    80004568:	1aa13c23          	sd	a0,440(sp)
    8000456c:	08051663          	bnez	a0,800045f8 <__ubsan_handle_type_mismatch_v1+0x104>
    80004570:	0040006f          	j	80004574 <__ubsan_handle_type_mismatch_v1+0x80>
    80004574:	06813503          	ld	a0,104(sp)
    80004578:	1ca13023          	sd	a0,448(sp)
    8000457c:	00100513          	li	a0,1
    80004580:	1ca10423          	sb	a0,456(sp)
    80004584:	1a813503          	ld	a0,424(sp)
    80004588:	01954583          	lbu	a1,25(a0)
    8000458c:	19010513          	addi	a0,sp,400
    80004590:	04a13423          	sd	a0,72(sp)
    80004594:	00000097          	auipc	ra,0x0
    80004598:	19c080e7          	jalr	412(ra) # 80004730 <ubsan_rt.TypeMismatchData__enum_2024.getName>
    8000459c:	00050613          	mv	a2,a0
    800045a0:	04813503          	ld	a0,72(sp)
    800045a4:	04c13023          	sd	a2,64(sp)
    800045a8:	02b13c23          	sd	a1,56(sp)
    800045ac:	1a813583          	ld	a1,424(sp)
    800045b0:	0105b583          	ld	a1,16(a1)
    800045b4:	ffffc097          	auipc	ra,0xffffc
    800045b8:	c30080e7          	jalr	-976(ra) # 800001e4 <ubsan_rt.TypeDescriptor.getName>
    800045bc:	03813703          	ld	a4,56(sp)
    800045c0:	04013683          	ld	a3,64(sp)
    800045c4:	00050613          	mv	a2,a0
    800045c8:	04813503          	ld	a0,72(sp)
    800045cc:	04c13823          	sd	a2,80(sp)
    800045d0:	00058613          	mv	a2,a1
    800045d4:	05013583          	ld	a1,80(sp)
    800045d8:	1ce13c23          	sd	a4,472(sp)
    800045dc:	1cd13823          	sd	a3,464(sp)
    800045e0:	1ec13423          	sd	a2,488(sp)
    800045e4:	1eb13023          	sd	a1,480(sp)
    800045e8:	1c010593          	addi	a1,sp,448
    800045ec:	1d010613          	addi	a2,sp,464
    800045f0:	00000097          	auipc	ra,0x0
    800045f4:	29c080e7          	jalr	668(ra) # 8000488c <debug.panicExtra__anon_2538>
    800045f8:	05813603          	ld	a2,88(sp)
    800045fc:	06013583          	ld	a1,96(sp)
    80004600:	19010513          	addi	a0,sp,400
    80004604:	00000097          	auipc	ra,0x0
    80004608:	484080e7          	jalr	1156(ra) # 80004a88 <mem.isAligned>
    8000460c:	00157513          	andi	a0,a0,1
    80004610:	08051a63          	bnez	a0,800046a4 <__ubsan_handle_type_mismatch_v1+0x1b0>
    80004614:	0040006f          	j	80004618 <__ubsan_handle_type_mismatch_v1+0x124>
    80004618:	06813503          	ld	a0,104(sp)
    8000461c:	1ea13823          	sd	a0,496(sp)
    80004620:	00100513          	li	a0,1
    80004624:	1ea10c23          	sb	a0,504(sp)
    80004628:	1a813503          	ld	a0,424(sp)
    8000462c:	01954583          	lbu	a1,25(a0)
    80004630:	19010513          	addi	a0,sp,400
    80004634:	02a13823          	sd	a0,48(sp)
    80004638:	00000097          	auipc	ra,0x0
    8000463c:	0f8080e7          	jalr	248(ra) # 80004730 <ubsan_rt.TypeMismatchData__enum_2024.getName>
    80004640:	00050613          	mv	a2,a0
    80004644:	03013503          	ld	a0,48(sp)
    80004648:	02c13423          	sd	a2,40(sp)
    8000464c:	02b13023          	sd	a1,32(sp)
    80004650:	1a813583          	ld	a1,424(sp)
    80004654:	0105b583          	ld	a1,16(a1)
    80004658:	ffffc097          	auipc	ra,0xffffc
    8000465c:	b8c080e7          	jalr	-1140(ra) # 800001e4 <ubsan_rt.TypeDescriptor.getName>
    80004660:	02013803          	ld	a6,32(sp)
    80004664:	02813783          	ld	a5,40(sp)
    80004668:	06013703          	ld	a4,96(sp)
